   1              		.cpu cortex-m0
   2              		.fpu softvfp
   3              		.eabi_attribute 20, 1
   4              		.eabi_attribute 21, 1
   5              		.eabi_attribute 23, 3
   6              		.eabi_attribute 24, 1
   7              		.eabi_attribute 25, 1
   8              		.eabi_attribute 26, 1
   9              		.eabi_attribute 30, 6
  10              		.eabi_attribute 34, 0
  11              		.eabi_attribute 18, 4
  12              		.code	16
  13              		.file	"BitsIoLdd1.c"
  14              		.text
  15              	.Ltext0:
  16              		.cfi_sections	.debug_frame
  17              		.section	.rodata.BitsIoLdd1_PIN_MASK_MAP,"a",%progbits
  18              		.align	2
  21              	BitsIoLdd1_PIN_MASK_MAP:
  22 0000 00020000 		.word	512
  23 0004 00040000 		.word	1024
  24              		.section	.bss.DeviceDataPrv__DEFAULT_RTOS_ALLOC,"aw",%nobits
  25              		.align	2
  28              	DeviceDataPrv__DEFAULT_RTOS_ALLOC:
  29 0000 00000000 		.space	4
  30              		.section	.text.BitsIoLdd1_Init,"ax",%progbits
  31              		.align	2
  32              		.global	BitsIoLdd1_Init
  33              		.code	16
  34              		.thumb_func
  36              	BitsIoLdd1_Init:
  37              	.LFB0:
  38              		.file 1 "../Generated_Code/BitsIoLdd1.c"
   1:../Generated_Code/BitsIoLdd1.c **** /** ###################################################################
   2:../Generated_Code/BitsIoLdd1.c **** **     THIS COMPONENT MODULE IS GENERATED BY THE TOOL. DO NOT MODIFY IT.
   3:../Generated_Code/BitsIoLdd1.c **** **     Filename    : BitsIoLdd1.c
   4:../Generated_Code/BitsIoLdd1.c **** **     Project     : ProcessorExpert
   5:../Generated_Code/BitsIoLdd1.c **** **     Processor   : MKL25Z128VLK4
   6:../Generated_Code/BitsIoLdd1.c **** **     Component   : BitsIO_LDD
   7:../Generated_Code/BitsIoLdd1.c **** **     Version     : Component 01.021, Driver 01.00, CPU db: 3.00.000
   8:../Generated_Code/BitsIoLdd1.c **** **     Compiler    : GNU C Compiler
   9:../Generated_Code/BitsIoLdd1.c **** **     Date/Time   : 2013-05-10, 22:48, # CodeGen: 0
  10:../Generated_Code/BitsIoLdd1.c **** **     Abstract    :
  11:../Generated_Code/BitsIoLdd1.c **** **         The HAL BitsIO component provides a low level API for unified
  12:../Generated_Code/BitsIoLdd1.c **** **         access to general purpose digital input/output 32 pins across
  13:../Generated_Code/BitsIoLdd1.c **** **         various device designs.
  14:../Generated_Code/BitsIoLdd1.c **** **
  15:../Generated_Code/BitsIoLdd1.c **** **         RTOS drivers using HAL BitsIO API are simpler and more
  16:../Generated_Code/BitsIoLdd1.c **** **         portable to various microprocessors.
  17:../Generated_Code/BitsIoLdd1.c **** **     Settings    :
  18:../Generated_Code/BitsIoLdd1.c **** **          Component name                                 : BitsIoLdd1
  19:../Generated_Code/BitsIoLdd1.c **** **          Port                                           : PTC
  20:../Generated_Code/BitsIoLdd1.c **** **          Pins                                           : 2
  21:../Generated_Code/BitsIoLdd1.c **** **            Pin0                                         : 
  22:../Generated_Code/BitsIoLdd1.c **** **              Pin                                        : CMP0_IN3/PTC9/I2C0_SDA/TPM0_CH5
  23:../Generated_Code/BitsIoLdd1.c **** **              Pin signal                                 : 
  24:../Generated_Code/BitsIoLdd1.c **** **            Pin1                                         : 
  25:../Generated_Code/BitsIoLdd1.c **** **              Pin                                        : PTC10/I2C1_SCL
  26:../Generated_Code/BitsIoLdd1.c **** **              Pin signal                                 : 
  27:../Generated_Code/BitsIoLdd1.c **** **          Direction                                      : Output
  28:../Generated_Code/BitsIoLdd1.c **** **          Initialization                                 : 
  29:../Generated_Code/BitsIoLdd1.c **** **            Init. direction                              : Output
  30:../Generated_Code/BitsIoLdd1.c **** **            Init. value                                  : 0
  31:../Generated_Code/BitsIoLdd1.c **** **            AutoInitialization                           : yes
  32:../Generated_Code/BitsIoLdd1.c **** **          Safe mode                                      : no
  33:../Generated_Code/BitsIoLdd1.c **** **     Contents    :
  34:../Generated_Code/BitsIoLdd1.c **** **         Init   - LDD_TDeviceData* BitsIoLdd1_Init(LDD_TUserData *UserDataPtr);
  35:../Generated_Code/BitsIoLdd1.c **** **         GetDir - bool BitsIoLdd1_GetDir(LDD_TDeviceData *DeviceDataPtr);
  36:../Generated_Code/BitsIoLdd1.c **** **         GetVal - dword BitsIoLdd1_GetVal(LDD_TDeviceData *DeviceDataPtr);
  37:../Generated_Code/BitsIoLdd1.c **** **         PutVal - void BitsIoLdd1_PutVal(LDD_TDeviceData *DeviceDataPtr, dword Val);
  38:../Generated_Code/BitsIoLdd1.c **** **         GetBit - LDD_TError BitsIoLdd1_GetBit(LDD_TDeviceData *DeviceDataPtr, byte Bit, bool...
  39:../Generated_Code/BitsIoLdd1.c **** **         PutBit - LDD_TError BitsIoLdd1_PutBit(LDD_TDeviceData *DeviceDataPtr, byte Bit, bool...
  40:../Generated_Code/BitsIoLdd1.c **** **         SetBit - LDD_TError BitsIoLdd1_SetBit(LDD_TDeviceData *DeviceDataPtr, byte Bit);
  41:../Generated_Code/BitsIoLdd1.c **** **         ClrBit - LDD_TError BitsIoLdd1_ClrBit(LDD_TDeviceData *DeviceDataPtr, byte Bit);
  42:../Generated_Code/BitsIoLdd1.c **** **         NegBit - LDD_TError BitsIoLdd1_NegBit(LDD_TDeviceData *DeviceDataPtr, byte Bit);
  43:../Generated_Code/BitsIoLdd1.c **** **
  44:../Generated_Code/BitsIoLdd1.c **** **     (c) 2012 by Freescale
  45:../Generated_Code/BitsIoLdd1.c **** ** ###################################################################*/
  46:../Generated_Code/BitsIoLdd1.c **** 
  47:../Generated_Code/BitsIoLdd1.c **** /* MODULE BitsIoLdd1. */
  48:../Generated_Code/BitsIoLdd1.c **** 
  49:../Generated_Code/BitsIoLdd1.c **** #include "BitsIoLdd1.h"
  50:../Generated_Code/BitsIoLdd1.c **** 
  51:../Generated_Code/BitsIoLdd1.c **** 
  52:../Generated_Code/BitsIoLdd1.c **** typedef struct {
  53:../Generated_Code/BitsIoLdd1.c ****   LDD_TUserData *UserDataPtr;          /* Pointer to user data */
  54:../Generated_Code/BitsIoLdd1.c **** } BitsIoLdd1_TDeviceData;              /* Device data structure type */
  55:../Generated_Code/BitsIoLdd1.c **** 
  56:../Generated_Code/BitsIoLdd1.c **** typedef BitsIoLdd1_TDeviceData *BitsIoLdd1_TDeviceDataPtr ; /* Pointer to the device data structure
  57:../Generated_Code/BitsIoLdd1.c **** 
  58:../Generated_Code/BitsIoLdd1.c **** static const uint32_t BitsIoLdd1_PIN_MASK_MAP[2U] = {
  59:../Generated_Code/BitsIoLdd1.c ****    0x0200U, 0x0400U
  60:../Generated_Code/BitsIoLdd1.c **** };                                     /* Map of masks for each pin */
  61:../Generated_Code/BitsIoLdd1.c **** 
  62:../Generated_Code/BitsIoLdd1.c **** /* {Default RTOS Adapter} Static object used for simulation of dynamic driver memory allocation */
  63:../Generated_Code/BitsIoLdd1.c **** static BitsIoLdd1_TDeviceData DeviceDataPrv__DEFAULT_RTOS_ALLOC;
  64:../Generated_Code/BitsIoLdd1.c **** 
  65:../Generated_Code/BitsIoLdd1.c **** 
  66:../Generated_Code/BitsIoLdd1.c **** /*
  67:../Generated_Code/BitsIoLdd1.c **** ** ===================================================================
  68:../Generated_Code/BitsIoLdd1.c **** **     Method      :  BitsIoLdd1_Init (component BitsIO_LDD)
  69:../Generated_Code/BitsIoLdd1.c **** **
  70:../Generated_Code/BitsIoLdd1.c **** **     Description :
  71:../Generated_Code/BitsIoLdd1.c **** **         This method initializes the associated peripheral(s) and the
  72:../Generated_Code/BitsIoLdd1.c **** **         component internal variables. The method is called
  73:../Generated_Code/BitsIoLdd1.c **** **         automatically as a part of the application initialization
  74:../Generated_Code/BitsIoLdd1.c **** **         code.
  75:../Generated_Code/BitsIoLdd1.c **** **     Parameters  :
  76:../Generated_Code/BitsIoLdd1.c **** **         NAME            - DESCRIPTION
  77:../Generated_Code/BitsIoLdd1.c **** **       * UserDataPtr     - Pointer to the RTOS device
  78:../Generated_Code/BitsIoLdd1.c **** **                           structure. This pointer will be passed to
  79:../Generated_Code/BitsIoLdd1.c **** **                           all events as parameter.
  80:../Generated_Code/BitsIoLdd1.c **** **     Returns     :
  81:../Generated_Code/BitsIoLdd1.c **** **         ---             - Pointer to the dynamically allocated
  82:../Generated_Code/BitsIoLdd1.c **** **                           private structure or NULL if there was an
  83:../Generated_Code/BitsIoLdd1.c **** **                           error.
  84:../Generated_Code/BitsIoLdd1.c **** ** ===================================================================
  85:../Generated_Code/BitsIoLdd1.c **** */
  86:../Generated_Code/BitsIoLdd1.c **** LDD_TDeviceData* BitsIoLdd1_Init(LDD_TUserData *UserDataPtr)
  87:../Generated_Code/BitsIoLdd1.c **** {
  39              		.loc 1 87 0
  40              		.cfi_startproc
  41 0000 80B5     		push	{r7, lr}
  42              	.LCFI0:
  43              		.cfi_def_cfa_offset 8
  44              		.cfi_offset 7, -8
  45              		.cfi_offset 14, -4
  46 0002 84B0     		sub	sp, sp, #16
  47              	.LCFI1:
  48              		.cfi_def_cfa_offset 24
  49 0004 00AF     		add	r7, sp, #0
  50              	.LCFI2:
  51              		.cfi_def_cfa_register 7
  52 0006 7860     		str	r0, [r7, #4]
  88:../Generated_Code/BitsIoLdd1.c ****   /* Allocate device structure */
  89:../Generated_Code/BitsIoLdd1.c ****   BitsIoLdd1_TDeviceDataPtr DeviceDataPrv;
  90:../Generated_Code/BitsIoLdd1.c ****   /* {Default RTOS Adapter} Driver memory allocation: Dynamic allocation is simulated by a pointer 
  91:../Generated_Code/BitsIoLdd1.c ****   DeviceDataPrv = &DeviceDataPrv__DEFAULT_RTOS_ALLOC;
  53              		.loc 1 91 0
  54 0008 174B     		ldr	r3, .L2
  55 000a FB60     		str	r3, [r7, #12]
  92:../Generated_Code/BitsIoLdd1.c **** 
  93:../Generated_Code/BitsIoLdd1.c ****   DeviceDataPrv->UserDataPtr = UserDataPtr; /* Store the RTOS device structure */
  56              		.loc 1 93 0
  57 000c FB68     		ldr	r3, [r7, #12]
  58 000e 7A68     		ldr	r2, [r7, #4]
  59 0010 1A60     		str	r2, [r3]
  94:../Generated_Code/BitsIoLdd1.c **** 
  95:../Generated_Code/BitsIoLdd1.c ****   /* Configure pin directions */
  96:../Generated_Code/BitsIoLdd1.c ****   /* GPIOC_PDDR: PDD|=0x0600 */
  97:../Generated_Code/BitsIoLdd1.c ****   GPIOC_PDDR |= GPIO_PDDR_PDD(0x0600);                                                   
  60              		.loc 1 97 0
  61 0012 164B     		ldr	r3, .L2+4
  62 0014 154A     		ldr	r2, .L2+4
  63 0016 5269     		ldr	r2, [r2, #20]
  64 0018 C021     		mov	r1, #192
  65 001a C900     		lsl	r1, r1, #3
  66 001c 0A43     		orr	r2, r1
  67 001e 5A61     		str	r2, [r3, #20]
  98:../Generated_Code/BitsIoLdd1.c **** 
  99:../Generated_Code/BitsIoLdd1.c ****   /* Set initialization value */
 100:../Generated_Code/BitsIoLdd1.c ****   /* GPIOC_PDOR: PDO&=~0x0600 */
 101:../Generated_Code/BitsIoLdd1.c ****   GPIOC_PDOR &= (uint32_t)~(uint32_t)(GPIO_PDOR_PDO(0x0600));                                      
  68              		.loc 1 101 0
  69 0020 124B     		ldr	r3, .L2+4
  70 0022 124A     		ldr	r2, .L2+4
  71 0024 1268     		ldr	r2, [r2]
  72 0026 111C     		mov	r1, r2
  73 0028 114A     		ldr	r2, .L2+8
  74 002a 0A40     		and	r2, r1
  75 002c 1A60     		str	r2, [r3]
 102:../Generated_Code/BitsIoLdd1.c ****   
 103:../Generated_Code/BitsIoLdd1.c ****   /* Initialization of Port Control register */
 104:../Generated_Code/BitsIoLdd1.c ****   /* PORTC_PCR9: ISF=0,MUX=1 */
 105:../Generated_Code/BitsIoLdd1.c ****   PORTC_PCR9 = (uint32_t)((PORTC_PCR9 & (uint32_t)~(uint32_t)(
  76              		.loc 1 105 0
  77 002e 114B     		ldr	r3, .L2+12
  78 0030 104A     		ldr	r2, .L2+12
  79 0032 526A     		ldr	r2, [r2, #36]
  80 0034 111C     		mov	r1, r2
  81 0036 104A     		ldr	r2, .L2+16
  82 0038 0A40     		and	r2, r1
  83 003a 8021     		mov	r1, #128
  84 003c 4900     		lsl	r1, r1, #1
  85 003e 0A43     		orr	r2, r1
  86 0040 5A62     		str	r2, [r3, #36]
 106:../Generated_Code/BitsIoLdd1.c ****                 PORT_PCR_ISF_MASK |
 107:../Generated_Code/BitsIoLdd1.c ****                 PORT_PCR_MUX(0x06)
 108:../Generated_Code/BitsIoLdd1.c ****                )) | (uint32_t)(
 109:../Generated_Code/BitsIoLdd1.c ****                 PORT_PCR_MUX(0x01)
 110:../Generated_Code/BitsIoLdd1.c ****                ));                                                  
 111:../Generated_Code/BitsIoLdd1.c ****   /* PORTC_PCR10: ISF=0,MUX=1 */
 112:../Generated_Code/BitsIoLdd1.c ****   PORTC_PCR10 = (uint32_t)((PORTC_PCR10 & (uint32_t)~(uint32_t)(
  87              		.loc 1 112 0
  88 0042 0C4B     		ldr	r3, .L2+12
  89 0044 0B4A     		ldr	r2, .L2+12
  90 0046 926A     		ldr	r2, [r2, #40]
  91 0048 111C     		mov	r1, r2
  92 004a 0B4A     		ldr	r2, .L2+16
  93 004c 0A40     		and	r2, r1
  94 004e 8021     		mov	r1, #128
  95 0050 4900     		lsl	r1, r1, #1
  96 0052 0A43     		orr	r2, r1
  97 0054 9A62     		str	r2, [r3, #40]
 113:../Generated_Code/BitsIoLdd1.c ****                  PORT_PCR_ISF_MASK |
 114:../Generated_Code/BitsIoLdd1.c ****                  PORT_PCR_MUX(0x06)
 115:../Generated_Code/BitsIoLdd1.c ****                 )) | (uint32_t)(
 116:../Generated_Code/BitsIoLdd1.c ****                  PORT_PCR_MUX(0x01)
 117:../Generated_Code/BitsIoLdd1.c ****                 ));                                                  
 118:../Generated_Code/BitsIoLdd1.c **** 
 119:../Generated_Code/BitsIoLdd1.c ****   /* Registration of the device structure */
 120:../Generated_Code/BitsIoLdd1.c ****   PE_LDD_RegisterDeviceStructure(PE_LDD_COMPONENT_BitsIoLdd1_ID,DeviceDataPrv);
  98              		.loc 1 120 0
  99 0056 094B     		ldr	r3, .L2+20
 100 0058 FA68     		ldr	r2, [r7, #12]
 101 005a 1A62     		str	r2, [r3, #32]
 121:../Generated_Code/BitsIoLdd1.c ****   return ((LDD_TDeviceData *)DeviceDataPrv);
 102              		.loc 1 121 0
 103 005c FB68     		ldr	r3, [r7, #12]
 122:../Generated_Code/BitsIoLdd1.c **** }
 104              		.loc 1 122 0
 105 005e 181C     		mov	r0, r3
 106 0060 BD46     		mov	sp, r7
 107 0062 04B0     		add	sp, sp, #16
 108              		@ sp needed for prologue
 109 0064 80BD     		pop	{r7, pc}
 110              	.L3:
 111 0066 C046     		.align	2
 112              	.L2:
 113 0068 00000000 		.word	DeviceDataPrv__DEFAULT_RTOS_ALLOC
 114 006c 80F00F40 		.word	1074786432
 115 0070 FFF9FFFF 		.word	-1537
 116 0074 00B00440 		.word	1074049024
 117 0078 FFF8FFFE 		.word	-16779009
 118 007c 00000000 		.word	PE_LDD_DeviceDataList
 119              		.cfi_endproc
 120              	.LFE0:
 122              		.section	.text.BitsIoLdd1_GetDir,"ax",%progbits
 123              		.align	2
 124              		.global	BitsIoLdd1_GetDir
 125              		.code	16
 126              		.thumb_func
 128              	BitsIoLdd1_GetDir:
 129              	.LFB1:
 123:../Generated_Code/BitsIoLdd1.c **** /*
 124:../Generated_Code/BitsIoLdd1.c **** ** ===================================================================
 125:../Generated_Code/BitsIoLdd1.c **** **     Method      :  BitsIoLdd1_GetDir (component BitsIO_LDD)
 126:../Generated_Code/BitsIoLdd1.c **** **
 127:../Generated_Code/BitsIoLdd1.c **** **     Description :
 128:../Generated_Code/BitsIoLdd1.c **** **         Returns the selected direction.
 129:../Generated_Code/BitsIoLdd1.c **** **     Parameters  :
 130:../Generated_Code/BitsIoLdd1.c **** **         NAME            - DESCRIPTION
 131:../Generated_Code/BitsIoLdd1.c **** **       * DeviceDataPtr   - Device data structure
 132:../Generated_Code/BitsIoLdd1.c **** **                           pointer returned by <Init> method.
 133:../Generated_Code/BitsIoLdd1.c **** **     Returns     :
 134:../Generated_Code/BitsIoLdd1.c **** **         ---             - Possible values:
 135:../Generated_Code/BitsIoLdd1.c **** **                           <false> - Input
 136:../Generated_Code/BitsIoLdd1.c **** **                           <true> - Output
 137:../Generated_Code/BitsIoLdd1.c **** ** ===================================================================
 138:../Generated_Code/BitsIoLdd1.c **** */
 139:../Generated_Code/BitsIoLdd1.c **** bool BitsIoLdd1_GetDir(LDD_TDeviceData *DeviceDataPtr)
 140:../Generated_Code/BitsIoLdd1.c **** {
 130              		.loc 1 140 0
 131              		.cfi_startproc
 132 0000 80B5     		push	{r7, lr}
 133              	.LCFI3:
 134              		.cfi_def_cfa_offset 8
 135              		.cfi_offset 7, -8
 136              		.cfi_offset 14, -4
 137 0002 82B0     		sub	sp, sp, #8
 138              	.LCFI4:
 139              		.cfi_def_cfa_offset 16
 140 0004 00AF     		add	r7, sp, #0
 141              	.LCFI5:
 142              		.cfi_def_cfa_register 7
 143 0006 7860     		str	r0, [r7, #4]
 141:../Generated_Code/BitsIoLdd1.c **** 
 142:../Generated_Code/BitsIoLdd1.c ****   (void)DeviceDataPtr;                 /* Parameter is not used, suppress unused argument warning *
 143:../Generated_Code/BitsIoLdd1.c **** 
 144:../Generated_Code/BitsIoLdd1.c ****   return (bool)TRUE;                   /* Pin is fixed to GPO mode */
 144              		.loc 1 144 0
 145 0008 0123     		mov	r3, #1
 145:../Generated_Code/BitsIoLdd1.c **** }
 146              		.loc 1 145 0
 147 000a 181C     		mov	r0, r3
 148 000c BD46     		mov	sp, r7
 149 000e 02B0     		add	sp, sp, #8
 150              		@ sp needed for prologue
 151 0010 80BD     		pop	{r7, pc}
 152              		.cfi_endproc
 153              	.LFE1:
 155 0012 C046     		.section	.text.BitsIoLdd1_GetVal,"ax",%progbits
 156              		.align	2
 157              		.global	BitsIoLdd1_GetVal
 158              		.code	16
 159              		.thumb_func
 161              	BitsIoLdd1_GetVal:
 162              	.LFB2:
 146:../Generated_Code/BitsIoLdd1.c **** /*
 147:../Generated_Code/BitsIoLdd1.c **** ** ===================================================================
 148:../Generated_Code/BitsIoLdd1.c **** **     Method      :  BitsIoLdd1_GetVal (component BitsIO_LDD)
 149:../Generated_Code/BitsIoLdd1.c **** **
 150:../Generated_Code/BitsIoLdd1.c **** **     Description :
 151:../Generated_Code/BitsIoLdd1.c **** **         Returns the value of the Input/Output component. If the
 152:../Generated_Code/BitsIoLdd1.c **** **         direction is [input] then reads the input value of the pins
 153:../Generated_Code/BitsIoLdd1.c **** **         and returns it. If the direction is [output] then returns
 154:../Generated_Code/BitsIoLdd1.c **** **         the last written value (see <Safe mode> property for
 155:../Generated_Code/BitsIoLdd1.c **** **         limitations).
 156:../Generated_Code/BitsIoLdd1.c **** **     Parameters  :
 157:../Generated_Code/BitsIoLdd1.c **** **         NAME            - DESCRIPTION
 158:../Generated_Code/BitsIoLdd1.c **** **       * DeviceDataPtr   - Device data structure
 159:../Generated_Code/BitsIoLdd1.c **** **                           pointer returned by <Init> method.
 160:../Generated_Code/BitsIoLdd1.c **** **     Returns     :
 161:../Generated_Code/BitsIoLdd1.c **** **         ---             - Input value
 162:../Generated_Code/BitsIoLdd1.c **** ** ===================================================================
 163:../Generated_Code/BitsIoLdd1.c **** */
 164:../Generated_Code/BitsIoLdd1.c **** dword BitsIoLdd1_GetVal(LDD_TDeviceData *DeviceDataPtr)
 165:../Generated_Code/BitsIoLdd1.c **** {
 163              		.loc 1 165 0
 164              		.cfi_startproc
 165 0000 80B5     		push	{r7, lr}
 166              	.LCFI6:
 167              		.cfi_def_cfa_offset 8
 168              		.cfi_offset 7, -8
 169              		.cfi_offset 14, -4
 170 0002 84B0     		sub	sp, sp, #16
 171              	.LCFI7:
 172              		.cfi_def_cfa_offset 24
 173 0004 00AF     		add	r7, sp, #0
 174              	.LCFI8:
 175              		.cfi_def_cfa_register 7
 176 0006 7860     		str	r0, [r7, #4]
 166:../Generated_Code/BitsIoLdd1.c ****   dword portData;
 167:../Generated_Code/BitsIoLdd1.c **** 
 168:../Generated_Code/BitsIoLdd1.c ****   (void)DeviceDataPtr;                 /* Parameter is not used, suppress unused argument warning *
 169:../Generated_Code/BitsIoLdd1.c **** 
 170:../Generated_Code/BitsIoLdd1.c ****   portData = GPIO_PDD_GetPortDataOutput(BitsIoLdd1_MODULE_BASE_ADDRESS) & BitsIoLdd1_PORT_MASK;
 177              		.loc 1 170 0
 178 0008 064B     		ldr	r3, .L6
 179 000a 1B68     		ldr	r3, [r3]
 180 000c 1A1C     		mov	r2, r3
 181 000e C023     		mov	r3, #192
 182 0010 DB00     		lsl	r3, r3, #3
 183 0012 1340     		and	r3, r2
 184 0014 FB60     		str	r3, [r7, #12]
 171:../Generated_Code/BitsIoLdd1.c **** 
 172:../Generated_Code/BitsIoLdd1.c **** 
 173:../Generated_Code/BitsIoLdd1.c ****   return portData >> BitsIoLdd1_PIN_ALLOC_0_INDEX; /* Return port data shifted with the offset of t
 185              		.loc 1 173 0
 186 0016 FB68     		ldr	r3, [r7, #12]
 187 0018 5B0A     		lsr	r3, r3, #9
 174:../Generated_Code/BitsIoLdd1.c **** }
 188              		.loc 1 174 0
 189 001a 181C     		mov	r0, r3
 190 001c BD46     		mov	sp, r7
 191 001e 04B0     		add	sp, sp, #16
 192              		@ sp needed for prologue
 193 0020 80BD     		pop	{r7, pc}
 194              	.L7:
 195 0022 C046     		.align	2
 196              	.L6:
 197 0024 80F00FF8 		.word	-133173120
 198              		.cfi_endproc
 199              	.LFE2:
 201              		.section	.text.BitsIoLdd1_PutVal,"ax",%progbits
 202              		.align	2
 203              		.global	BitsIoLdd1_PutVal
 204              		.code	16
 205              		.thumb_func
 207              	BitsIoLdd1_PutVal:
 208              	.LFB3:
 175:../Generated_Code/BitsIoLdd1.c **** /*
 176:../Generated_Code/BitsIoLdd1.c **** ** ===================================================================
 177:../Generated_Code/BitsIoLdd1.c **** **     Method      :  BitsIoLdd1_PutVal (component BitsIO_LDD)
 178:../Generated_Code/BitsIoLdd1.c **** **
 179:../Generated_Code/BitsIoLdd1.c **** **     Description :
 180:../Generated_Code/BitsIoLdd1.c **** **         Specified value is passed to the Input/Output component. If
 181:../Generated_Code/BitsIoLdd1.c **** **         the direction is [input] saves the value to a memory or a
 182:../Generated_Code/BitsIoLdd1.c **** **         register, this value will be written to the pins after
 183:../Generated_Code/BitsIoLdd1.c **** **         switching to the output mode - using [SetDir(TRUE)] (see
 184:../Generated_Code/BitsIoLdd1.c **** **         <Safe mode> property for limitations). If the direction is
 185:../Generated_Code/BitsIoLdd1.c **** **         [output] it writes the value to the pins. (Method is
 186:../Generated_Code/BitsIoLdd1.c **** **         available only if the Direction = _[output]_ or
 187:../Generated_Code/BitsIoLdd1.c **** **         _[input/output]_).
 188:../Generated_Code/BitsIoLdd1.c **** **     Parameters  :
 189:../Generated_Code/BitsIoLdd1.c **** **         NAME            - DESCRIPTION
 190:../Generated_Code/BitsIoLdd1.c **** **       * DeviceDataPtr   - Device data structure
 191:../Generated_Code/BitsIoLdd1.c **** **                           pointer returned by <Init> method.
 192:../Generated_Code/BitsIoLdd1.c **** **         Val             - Output value
 193:../Generated_Code/BitsIoLdd1.c **** **     Returns     : Nothing
 194:../Generated_Code/BitsIoLdd1.c **** ** ===================================================================
 195:../Generated_Code/BitsIoLdd1.c **** */
 196:../Generated_Code/BitsIoLdd1.c **** void BitsIoLdd1_PutVal(LDD_TDeviceData *DeviceDataPtr, dword Val)
 197:../Generated_Code/BitsIoLdd1.c **** {
 209              		.loc 1 197 0
 210              		.cfi_startproc
 211 0000 80B5     		push	{r7, lr}
 212              	.LCFI9:
 213              		.cfi_def_cfa_offset 8
 214              		.cfi_offset 7, -8
 215              		.cfi_offset 14, -4
 216 0002 84B0     		sub	sp, sp, #16
 217              	.LCFI10:
 218              		.cfi_def_cfa_offset 24
 219 0004 00AF     		add	r7, sp, #0
 220              	.LCFI11:
 221              		.cfi_def_cfa_register 7
 222 0006 7860     		str	r0, [r7, #4]
 223 0008 3960     		str	r1, [r7]
 198:../Generated_Code/BitsIoLdd1.c ****   /* Store the raw value of the port, set according to the offset of the first allocated pin */
 199:../Generated_Code/BitsIoLdd1.c ****   dword rawVal;
 200:../Generated_Code/BitsIoLdd1.c **** 
 201:../Generated_Code/BitsIoLdd1.c ****   (void)DeviceDataPtr;                 /* Parameter is not used, suppress unused argument warning *
 202:../Generated_Code/BitsIoLdd1.c **** 
 203:../Generated_Code/BitsIoLdd1.c ****   /* Calculate the raw data to be set (i.e. shifted to left according to the first allocated pin) *
 204:../Generated_Code/BitsIoLdd1.c ****   rawVal = (Val & BitsIoLdd1_PORT_VALID_VALUE_MASK) << BitsIoLdd1_PIN_ALLOC_0_INDEX; /* Mask and sh
 224              		.loc 1 204 0
 225 000a 3A68     		ldr	r2, [r7]
 226 000c 0323     		mov	r3, #3
 227 000e 1340     		and	r3, r2
 228 0010 5B02     		lsl	r3, r3, #9
 229 0012 FB60     		str	r3, [r7, #12]
 205:../Generated_Code/BitsIoLdd1.c **** 
 206:../Generated_Code/BitsIoLdd1.c ****   /* Set port data by toggling the different bits only */
 207:../Generated_Code/BitsIoLdd1.c ****   GPIO_PDD_TogglePortDataOutputMask(BitsIoLdd1_MODULE_BASE_ADDRESS,
 230              		.loc 1 207 0
 231 0014 064B     		ldr	r3, .L9
 232 0016 064A     		ldr	r2, .L9
 233 0018 1268     		ldr	r2, [r2]
 234 001a 111C     		mov	r1, r2
 235 001c FA68     		ldr	r2, [r7, #12]
 236 001e 5140     		eor	r1, r2
 237 0020 C022     		mov	r2, #192
 238 0022 D200     		lsl	r2, r2, #3
 239 0024 0A40     		and	r2, r1
 240 0026 DA60     		str	r2, [r3, #12]
 208:../Generated_Code/BitsIoLdd1.c ****       (GPIO_PDD_GetPortDataOutput(BitsIoLdd1_MODULE_BASE_ADDRESS) ^ rawVal) & BitsIoLdd1_PORT_MASK)
 209:../Generated_Code/BitsIoLdd1.c **** }
 241              		.loc 1 209 0
 242 0028 BD46     		mov	sp, r7
 243 002a 04B0     		add	sp, sp, #16
 244              		@ sp needed for prologue
 245 002c 80BD     		pop	{r7, pc}
 246              	.L10:
 247 002e C046     		.align	2
 248              	.L9:
 249 0030 80F00FF8 		.word	-133173120
 250              		.cfi_endproc
 251              	.LFE3:
 253              		.section	.text.BitsIoLdd1_GetBit,"ax",%progbits
 254              		.align	2
 255              		.global	BitsIoLdd1_GetBit
 256              		.code	16
 257              		.thumb_func
 259              	BitsIoLdd1_GetBit:
 260              	.LFB4:
 210:../Generated_Code/BitsIoLdd1.c **** 
 211:../Generated_Code/BitsIoLdd1.c **** /*
 212:../Generated_Code/BitsIoLdd1.c **** ** ===================================================================
 213:../Generated_Code/BitsIoLdd1.c **** **     Method      :  BitsIoLdd1_GetBit (component BitsIO_LDD)
 214:../Generated_Code/BitsIoLdd1.c **** **
 215:../Generated_Code/BitsIoLdd1.c **** **     Description :
 216:../Generated_Code/BitsIoLdd1.c **** **         Returns the value of the specified bit/pin of the
 217:../Generated_Code/BitsIoLdd1.c **** **         Input/Output component. If the direction is [input] then it
 218:../Generated_Code/BitsIoLdd1.c **** **         reads the input value of the pin and returns it. If the
 219:../Generated_Code/BitsIoLdd1.c **** **         direction is [output] then it returns the last written value
 220:../Generated_Code/BitsIoLdd1.c **** **         (see <Safe mode> property for limitations).
 221:../Generated_Code/BitsIoLdd1.c **** **     Parameters  :
 222:../Generated_Code/BitsIoLdd1.c **** **         NAME            - DESCRIPTION
 223:../Generated_Code/BitsIoLdd1.c **** **       * DeviceDataPtr   - Device data structure
 224:../Generated_Code/BitsIoLdd1.c **** **                           pointer returned by <Init> method.
 225:../Generated_Code/BitsIoLdd1.c **** **         Bit             - Bit/pin number to read
 226:../Generated_Code/BitsIoLdd1.c **** **       * BitVal          - The returned value: 
 227:../Generated_Code/BitsIoLdd1.c **** **                           <false> - logical "0" (Low level)
 228:../Generated_Code/BitsIoLdd1.c **** **                           <true> - logical "1" (High level)
 229:../Generated_Code/BitsIoLdd1.c **** **     Returns     :
 230:../Generated_Code/BitsIoLdd1.c **** **         ---             - Error code, possible values:
 231:../Generated_Code/BitsIoLdd1.c **** **                           ERR_OK - OK
 232:../Generated_Code/BitsIoLdd1.c **** **                           ERR_PARAM_MASK - Invalid pin index
 233:../Generated_Code/BitsIoLdd1.c **** **                           ERR_VALUE - Invalid output parameter
 234:../Generated_Code/BitsIoLdd1.c **** ** ===================================================================
 235:../Generated_Code/BitsIoLdd1.c **** */
 236:../Generated_Code/BitsIoLdd1.c **** LDD_TError BitsIoLdd1_GetBit(LDD_TDeviceData *DeviceDataPtr, byte Bit, bool *BitVal)
 237:../Generated_Code/BitsIoLdd1.c **** {
 261              		.loc 1 237 0
 262              		.cfi_startproc
 263 0000 80B5     		push	{r7, lr}
 264              	.LCFI12:
 265              		.cfi_def_cfa_offset 8
 266              		.cfi_offset 7, -8
 267              		.cfi_offset 14, -4
 268 0002 86B0     		sub	sp, sp, #24
 269              	.LCFI13:
 270              		.cfi_def_cfa_offset 32
 271 0004 00AF     		add	r7, sp, #0
 272              	.LCFI14:
 273              		.cfi_def_cfa_register 7
 274 0006 F860     		str	r0, [r7, #12]
 275 0008 7A60     		str	r2, [r7, #4]
 276 000a 3B1C     		mov	r3, r7
 277 000c 0B33     		add	r3, r3, #11
 278 000e 0A1C     		add	r2, r1, #0
 279 0010 1A70     		strb	r2, [r3]
 238:../Generated_Code/BitsIoLdd1.c ****   uint32_t mask = 0;
 280              		.loc 1 238 0
 281 0012 0023     		mov	r3, #0
 282 0014 7B61     		str	r3, [r7, #20]
 239:../Generated_Code/BitsIoLdd1.c **** 
 240:../Generated_Code/BitsIoLdd1.c ****   (void)DeviceDataPtr;                 /* Parameter is not used, suppress unused argument warning *
 241:../Generated_Code/BitsIoLdd1.c **** 
 242:../Generated_Code/BitsIoLdd1.c ****   /* Bit number value - this test can be disabled by setting the "Ignore range checking"
 243:../Generated_Code/BitsIoLdd1.c ****      property to the "yes" value in the "Configuration inspector" */
 244:../Generated_Code/BitsIoLdd1.c ****   if (Bit > 1U) {
 283              		.loc 1 244 0
 284 0016 3B1C     		mov	r3, r7
 285 0018 0B33     		add	r3, r3, #11
 286 001a 1B78     		ldrb	r3, [r3]
 287 001c 012B     		cmp	r3, #1
 288 001e 01D9     		bls	.L12
 245:../Generated_Code/BitsIoLdd1.c ****     return ERR_PARAM_MASK;
 289              		.loc 1 245 0
 290 0020 8023     		mov	r3, #128
 291 0022 18E0     		b	.L13
 292              	.L12:
 246:../Generated_Code/BitsIoLdd1.c ****   }
 247:../Generated_Code/BitsIoLdd1.c **** 
 248:../Generated_Code/BitsIoLdd1.c ****   /* Bit value returned - this test can be disabled by setting the "Ignore range checking"
 249:../Generated_Code/BitsIoLdd1.c ****      property to the "yes" value in the "Configuration inspector" */
 250:../Generated_Code/BitsIoLdd1.c ****   if (NULL == BitVal) {
 293              		.loc 1 250 0
 294 0024 7B68     		ldr	r3, [r7, #4]
 295 0026 002B     		cmp	r3, #0
 296 0028 01D1     		bne	.L14
 251:../Generated_Code/BitsIoLdd1.c ****     return ERR_VALUE;
 297              		.loc 1 251 0
 298 002a 0323     		mov	r3, #3
 299 002c 13E0     		b	.L13
 300              	.L14:
 252:../Generated_Code/BitsIoLdd1.c ****   }
 253:../Generated_Code/BitsIoLdd1.c **** 
 254:../Generated_Code/BitsIoLdd1.c ****   mask = BitsIoLdd1_PIN_MASK_MAP[Bit];
 301              		.loc 1 254 0
 302 002e 3B1C     		mov	r3, r7
 303 0030 0B33     		add	r3, r3, #11
 304 0032 1A78     		ldrb	r2, [r3]
 305 0034 0A4B     		ldr	r3, .L17
 306 0036 9200     		lsl	r2, r2, #2
 307 0038 D358     		ldr	r3, [r2, r3]
 308 003a 7B61     		str	r3, [r7, #20]
 255:../Generated_Code/BitsIoLdd1.c **** 
 256:../Generated_Code/BitsIoLdd1.c ****   if ((GPIO_PDD_GetPortDataOutput(BitsIoLdd1_MODULE_BASE_ADDRESS) & mask) != 0U) {
 309              		.loc 1 256 0
 310 003c 094B     		ldr	r3, .L17+4
 311 003e 1B68     		ldr	r3, [r3]
 312 0040 7A69     		ldr	r2, [r7, #20]
 313 0042 1340     		and	r3, r2
 314 0044 03D0     		beq	.L15
 257:../Generated_Code/BitsIoLdd1.c ****     *BitVal = (bool)TRUE;
 315              		.loc 1 257 0
 316 0046 7B68     		ldr	r3, [r7, #4]
 317 0048 0122     		mov	r2, #1
 318 004a 1A70     		strb	r2, [r3]
 319 004c 02E0     		b	.L16
 320              	.L15:
 258:../Generated_Code/BitsIoLdd1.c ****   }
 259:../Generated_Code/BitsIoLdd1.c ****   else {
 260:../Generated_Code/BitsIoLdd1.c ****     *BitVal = (bool)FALSE;
 321              		.loc 1 260 0
 322 004e 7B68     		ldr	r3, [r7, #4]
 323 0050 0022     		mov	r2, #0
 324 0052 1A70     		strb	r2, [r3]
 325              	.L16:
 261:../Generated_Code/BitsIoLdd1.c ****   }
 262:../Generated_Code/BitsIoLdd1.c **** 
 263:../Generated_Code/BitsIoLdd1.c ****   return ERR_OK;
 326              		.loc 1 263 0
 327 0054 0023     		mov	r3, #0
 328              	.L13:
 264:../Generated_Code/BitsIoLdd1.c **** }
 329              		.loc 1 264 0
 330 0056 181C     		mov	r0, r3
 331 0058 BD46     		mov	sp, r7
 332 005a 06B0     		add	sp, sp, #24
 333              		@ sp needed for prologue
 334 005c 80BD     		pop	{r7, pc}
 335              	.L18:
 336 005e C046     		.align	2
 337              	.L17:
 338 0060 00000000 		.word	BitsIoLdd1_PIN_MASK_MAP
 339 0064 80F00FF8 		.word	-133173120
 340              		.cfi_endproc
 341              	.LFE4:
 343              		.section	.text.BitsIoLdd1_PutBit,"ax",%progbits
 344              		.align	2
 345              		.global	BitsIoLdd1_PutBit
 346              		.code	16
 347              		.thumb_func
 349              	BitsIoLdd1_PutBit:
 350              	.LFB5:
 265:../Generated_Code/BitsIoLdd1.c **** 
 266:../Generated_Code/BitsIoLdd1.c **** /*
 267:../Generated_Code/BitsIoLdd1.c **** ** ===================================================================
 268:../Generated_Code/BitsIoLdd1.c **** **     Method      :  BitsIoLdd1_PutBit (component BitsIO_LDD)
 269:../Generated_Code/BitsIoLdd1.c **** **
 270:../Generated_Code/BitsIoLdd1.c **** **     Description :
 271:../Generated_Code/BitsIoLdd1.c **** **         Specified value is passed to the specified bit/pin of the
 272:../Generated_Code/BitsIoLdd1.c **** **         Input/Output component. If the direction is [input] it saves
 273:../Generated_Code/BitsIoLdd1.c **** **         the value to a memory or register, this value will be
 274:../Generated_Code/BitsIoLdd1.c **** **         written to the pin after switching to the output mode -
 275:../Generated_Code/BitsIoLdd1.c **** **         using [SetDir(TRUE)] (see <Safe mode> property for
 276:../Generated_Code/BitsIoLdd1.c **** **         limitations). If the direction is [output] it writes the
 277:../Generated_Code/BitsIoLdd1.c **** **         value to the pin. (Method is available only if the Direction
 278:../Generated_Code/BitsIoLdd1.c **** **         = _[output]_ or _[input/output]_).
 279:../Generated_Code/BitsIoLdd1.c **** **     Parameters  :
 280:../Generated_Code/BitsIoLdd1.c **** **         NAME            - DESCRIPTION
 281:../Generated_Code/BitsIoLdd1.c **** **       * DeviceDataPtr   - Pointer to device data
 282:../Generated_Code/BitsIoLdd1.c **** **                           structure pointer.
 283:../Generated_Code/BitsIoLdd1.c **** **         Bit             - Bit/pin number
 284:../Generated_Code/BitsIoLdd1.c **** **         Val             - A new bit value. Possible values:
 285:../Generated_Code/BitsIoLdd1.c **** **                           <false> - logical "0" (Low level)
 286:../Generated_Code/BitsIoLdd1.c **** **                           <true> - logical "1" (High level)
 287:../Generated_Code/BitsIoLdd1.c **** **     Returns     :
 288:../Generated_Code/BitsIoLdd1.c **** **         ---             - Error code, possible values:
 289:../Generated_Code/BitsIoLdd1.c **** **                           ERR_OK - OK
 290:../Generated_Code/BitsIoLdd1.c **** **                           ERR_PARAM_MASK - Invalid bit index
 291:../Generated_Code/BitsIoLdd1.c **** ** ===================================================================
 292:../Generated_Code/BitsIoLdd1.c **** */
 293:../Generated_Code/BitsIoLdd1.c **** LDD_TError BitsIoLdd1_PutBit(LDD_TDeviceData *DeviceDataPtr, byte Bit, bool Val)
 294:../Generated_Code/BitsIoLdd1.c **** {
 351              		.loc 1 294 0
 352              		.cfi_startproc
 353 0000 80B5     		push	{r7, lr}
 354              	.LCFI15:
 355              		.cfi_def_cfa_offset 8
 356              		.cfi_offset 7, -8
 357              		.cfi_offset 14, -4
 358 0002 84B0     		sub	sp, sp, #16
 359              	.LCFI16:
 360              		.cfi_def_cfa_offset 24
 361 0004 00AF     		add	r7, sp, #0
 362              	.LCFI17:
 363              		.cfi_def_cfa_register 7
 364 0006 7860     		str	r0, [r7, #4]
 365 0008 FB1C     		add	r3, r7, #3
 366 000a 1970     		strb	r1, [r3]
 367 000c BB1C     		add	r3, r7, #2
 368 000e 1A70     		strb	r2, [r3]
 295:../Generated_Code/BitsIoLdd1.c ****   uint32_t mask = 0;
 369              		.loc 1 295 0
 370 0010 0023     		mov	r3, #0
 371 0012 FB60     		str	r3, [r7, #12]
 296:../Generated_Code/BitsIoLdd1.c **** 
 297:../Generated_Code/BitsIoLdd1.c ****   (void)DeviceDataPtr;                 /* Parameter is not used, suppress unused argument warning *
 298:../Generated_Code/BitsIoLdd1.c **** 
 299:../Generated_Code/BitsIoLdd1.c ****   /* Bit number value - this test can be disabled by setting the "Ignore range checking"
 300:../Generated_Code/BitsIoLdd1.c ****      property to the "yes" value in the "Configuration inspector" */
 301:../Generated_Code/BitsIoLdd1.c ****   if (Bit > 1U) {
 372              		.loc 1 301 0
 373 0014 FB1C     		add	r3, r7, #3
 374 0016 1B78     		ldrb	r3, [r3]
 375 0018 012B     		cmp	r3, #1
 376 001a 01D9     		bls	.L20
 302:../Generated_Code/BitsIoLdd1.c ****     return ERR_PARAM_MASK;
 377              		.loc 1 302 0
 378 001c 8023     		mov	r3, #128
 379 001e 11E0     		b	.L21
 380              	.L20:
 303:../Generated_Code/BitsIoLdd1.c ****   }
 304:../Generated_Code/BitsIoLdd1.c **** 
 305:../Generated_Code/BitsIoLdd1.c ****   mask = BitsIoLdd1_PIN_MASK_MAP[Bit];
 381              		.loc 1 305 0
 382 0020 FB1C     		add	r3, r7, #3
 383 0022 1A78     		ldrb	r2, [r3]
 384 0024 094B     		ldr	r3, .L24
 385 0026 9200     		lsl	r2, r2, #2
 386 0028 D358     		ldr	r3, [r2, r3]
 387 002a FB60     		str	r3, [r7, #12]
 306:../Generated_Code/BitsIoLdd1.c **** 
 307:../Generated_Code/BitsIoLdd1.c ****   if (Val) {
 388              		.loc 1 307 0
 389 002c BB1C     		add	r3, r7, #2
 390 002e 1B78     		ldrb	r3, [r3]
 391 0030 002B     		cmp	r3, #0
 392 0032 03D0     		beq	.L22
 308:../Generated_Code/BitsIoLdd1.c ****     GPIO_PDD_SetPortDataOutputMask(BitsIoLdd1_MODULE_BASE_ADDRESS, mask);
 393              		.loc 1 308 0
 394 0034 064B     		ldr	r3, .L24+4
 395 0036 FA68     		ldr	r2, [r7, #12]
 396 0038 5A60     		str	r2, [r3, #4]
 397 003a 02E0     		b	.L23
 398              	.L22:
 309:../Generated_Code/BitsIoLdd1.c ****   } else { /* !Val */
 310:../Generated_Code/BitsIoLdd1.c ****     GPIO_PDD_ClearPortDataOutputMask(BitsIoLdd1_MODULE_BASE_ADDRESS, mask);
 399              		.loc 1 310 0
 400 003c 044B     		ldr	r3, .L24+4
 401 003e FA68     		ldr	r2, [r7, #12]
 402 0040 9A60     		str	r2, [r3, #8]
 403              	.L23:
 311:../Generated_Code/BitsIoLdd1.c ****   } /* !Val */
 312:../Generated_Code/BitsIoLdd1.c **** 
 313:../Generated_Code/BitsIoLdd1.c ****   return ERR_OK;
 404              		.loc 1 313 0
 405 0042 0023     		mov	r3, #0
 406              	.L21:
 314:../Generated_Code/BitsIoLdd1.c **** }
 407              		.loc 1 314 0
 408 0044 181C     		mov	r0, r3
 409 0046 BD46     		mov	sp, r7
 410 0048 04B0     		add	sp, sp, #16
 411              		@ sp needed for prologue
 412 004a 80BD     		pop	{r7, pc}
 413              	.L25:
 414              		.align	2
 415              	.L24:
 416 004c 00000000 		.word	BitsIoLdd1_PIN_MASK_MAP
 417 0050 80F00FF8 		.word	-133173120
 418              		.cfi_endproc
 419              	.LFE5:
 421              		.section	.text.BitsIoLdd1_SetBit,"ax",%progbits
 422              		.align	2
 423              		.global	BitsIoLdd1_SetBit
 424              		.code	16
 425              		.thumb_func
 427              	BitsIoLdd1_SetBit:
 428              	.LFB6:
 315:../Generated_Code/BitsIoLdd1.c **** 
 316:../Generated_Code/BitsIoLdd1.c **** /*
 317:../Generated_Code/BitsIoLdd1.c **** ** ===================================================================
 318:../Generated_Code/BitsIoLdd1.c **** **     Method      :  BitsIoLdd1_SetBit (component BitsIO_LDD)
 319:../Generated_Code/BitsIoLdd1.c **** **
 320:../Generated_Code/BitsIoLdd1.c **** **     Description :
 321:../Generated_Code/BitsIoLdd1.c **** **         Sets (to one) the specified bit of the Input/Output
 322:../Generated_Code/BitsIoLdd1.c **** **         component. It is the same as [PutBit(Bit, TRUE)]. (Method is
 323:../Generated_Code/BitsIoLdd1.c **** **         available only if the Direction = _[output]_ or
 324:../Generated_Code/BitsIoLdd1.c **** **         _[input/output]_).
 325:../Generated_Code/BitsIoLdd1.c **** **     Parameters  :
 326:../Generated_Code/BitsIoLdd1.c **** **         NAME            - DESCRIPTION
 327:../Generated_Code/BitsIoLdd1.c **** **       * DeviceDataPtr   - Pointer to device data
 328:../Generated_Code/BitsIoLdd1.c **** **                           structure pointer.
 329:../Generated_Code/BitsIoLdd1.c **** **         Bit             - Bit/pin number to set
 330:../Generated_Code/BitsIoLdd1.c **** **     Returns     :
 331:../Generated_Code/BitsIoLdd1.c **** **         ---             - Error code, possible values:
 332:../Generated_Code/BitsIoLdd1.c **** **                           ERR_OK - OK
 333:../Generated_Code/BitsIoLdd1.c **** **                           ERR_PARAM_MASK - Invalid pin mask
 334:../Generated_Code/BitsIoLdd1.c **** ** ===================================================================
 335:../Generated_Code/BitsIoLdd1.c **** */
 336:../Generated_Code/BitsIoLdd1.c **** LDD_TError BitsIoLdd1_SetBit(LDD_TDeviceData *DeviceDataPtr, byte Bit)
 337:../Generated_Code/BitsIoLdd1.c **** {
 429              		.loc 1 337 0
 430              		.cfi_startproc
 431 0000 80B5     		push	{r7, lr}
 432              	.LCFI18:
 433              		.cfi_def_cfa_offset 8
 434              		.cfi_offset 7, -8
 435              		.cfi_offset 14, -4
 436 0002 84B0     		sub	sp, sp, #16
 437              	.LCFI19:
 438              		.cfi_def_cfa_offset 24
 439 0004 00AF     		add	r7, sp, #0
 440              	.LCFI20:
 441              		.cfi_def_cfa_register 7
 442 0006 7860     		str	r0, [r7, #4]
 443 0008 0A1C     		mov	r2, r1
 444 000a FB1C     		add	r3, r7, #3
 445 000c 1A70     		strb	r2, [r3]
 338:../Generated_Code/BitsIoLdd1.c ****   uint32_t mask = 0;
 446              		.loc 1 338 0
 447 000e 0023     		mov	r3, #0
 448 0010 FB60     		str	r3, [r7, #12]
 339:../Generated_Code/BitsIoLdd1.c **** 
 340:../Generated_Code/BitsIoLdd1.c ****   (void)DeviceDataPtr;                 /* Parameter is not used, suppress unused argument warning *
 341:../Generated_Code/BitsIoLdd1.c **** 
 342:../Generated_Code/BitsIoLdd1.c ****   /* Bit number value - this test can be disabled by setting the "Ignore range checking"
 343:../Generated_Code/BitsIoLdd1.c ****      property to the "yes" value in the "Configuration inspector" */
 344:../Generated_Code/BitsIoLdd1.c ****   if (Bit > 1U) {
 449              		.loc 1 344 0
 450 0012 FB1C     		add	r3, r7, #3
 451 0014 1B78     		ldrb	r3, [r3]
 452 0016 012B     		cmp	r3, #1
 453 0018 01D9     		bls	.L27
 345:../Generated_Code/BitsIoLdd1.c ****     return ERR_PARAM_MASK;
 454              		.loc 1 345 0
 455 001a 8023     		mov	r3, #128
 456 001c 09E0     		b	.L28
 457              	.L27:
 346:../Generated_Code/BitsIoLdd1.c ****   }
 347:../Generated_Code/BitsIoLdd1.c **** 
 348:../Generated_Code/BitsIoLdd1.c ****   mask = BitsIoLdd1_PIN_MASK_MAP[Bit];
 458              		.loc 1 348 0
 459 001e FB1C     		add	r3, r7, #3
 460 0020 1A78     		ldrb	r2, [r3]
 461 0022 064B     		ldr	r3, .L29
 462 0024 9200     		lsl	r2, r2, #2
 463 0026 D358     		ldr	r3, [r2, r3]
 464 0028 FB60     		str	r3, [r7, #12]
 349:../Generated_Code/BitsIoLdd1.c ****   GPIO_PDD_SetPortDataOutputMask(BitsIoLdd1_MODULE_BASE_ADDRESS, mask);
 465              		.loc 1 349 0
 466 002a 054B     		ldr	r3, .L29+4
 467 002c FA68     		ldr	r2, [r7, #12]
 468 002e 5A60     		str	r2, [r3, #4]
 350:../Generated_Code/BitsIoLdd1.c **** 
 351:../Generated_Code/BitsIoLdd1.c ****   return ERR_OK;
 469              		.loc 1 351 0
 470 0030 0023     		mov	r3, #0
 471              	.L28:
 352:../Generated_Code/BitsIoLdd1.c **** }
 472              		.loc 1 352 0
 473 0032 181C     		mov	r0, r3
 474 0034 BD46     		mov	sp, r7
 475 0036 04B0     		add	sp, sp, #16
 476              		@ sp needed for prologue
 477 0038 80BD     		pop	{r7, pc}
 478              	.L30:
 479 003a C046     		.align	2
 480              	.L29:
 481 003c 00000000 		.word	BitsIoLdd1_PIN_MASK_MAP
 482 0040 80F00FF8 		.word	-133173120
 483              		.cfi_endproc
 484              	.LFE6:
 486              		.section	.text.BitsIoLdd1_ClrBit,"ax",%progbits
 487              		.align	2
 488              		.global	BitsIoLdd1_ClrBit
 489              		.code	16
 490              		.thumb_func
 492              	BitsIoLdd1_ClrBit:
 493              	.LFB7:
 353:../Generated_Code/BitsIoLdd1.c **** 
 354:../Generated_Code/BitsIoLdd1.c **** /*
 355:../Generated_Code/BitsIoLdd1.c **** ** ===================================================================
 356:../Generated_Code/BitsIoLdd1.c **** **     Method      :  BitsIoLdd1_ClrBit (component BitsIO_LDD)
 357:../Generated_Code/BitsIoLdd1.c **** **
 358:../Generated_Code/BitsIoLdd1.c **** **     Description :
 359:../Generated_Code/BitsIoLdd1.c **** **         Clears (sets to zero) the specified bit of the Input/Output
 360:../Generated_Code/BitsIoLdd1.c **** **         component. It is the same as [PutBit(Bit, FALSE)]. (Method
 361:../Generated_Code/BitsIoLdd1.c **** **         is available only if the Direction = _[output]_ or
 362:../Generated_Code/BitsIoLdd1.c **** **         _[input/output]_).
 363:../Generated_Code/BitsIoLdd1.c **** **     Parameters  :
 364:../Generated_Code/BitsIoLdd1.c **** **         NAME            - DESCRIPTION
 365:../Generated_Code/BitsIoLdd1.c **** **       * DeviceDataPtr   - Pointer to device data
 366:../Generated_Code/BitsIoLdd1.c **** **                           structure pointer.
 367:../Generated_Code/BitsIoLdd1.c **** **         Bit             - Bit/pin number to clear
 368:../Generated_Code/BitsIoLdd1.c **** **     Returns     :
 369:../Generated_Code/BitsIoLdd1.c **** **         ---             - Error code, possible values:
 370:../Generated_Code/BitsIoLdd1.c **** **                           ERR_OK - OK
 371:../Generated_Code/BitsIoLdd1.c **** **                           ERR_PARAM_MASK - Invalid pin mask
 372:../Generated_Code/BitsIoLdd1.c **** ** ===================================================================
 373:../Generated_Code/BitsIoLdd1.c **** */
 374:../Generated_Code/BitsIoLdd1.c **** LDD_TError BitsIoLdd1_ClrBit(LDD_TDeviceData *DeviceDataPtr, byte Bit)
 375:../Generated_Code/BitsIoLdd1.c **** {
 494              		.loc 1 375 0
 495              		.cfi_startproc
 496 0000 80B5     		push	{r7, lr}
 497              	.LCFI21:
 498              		.cfi_def_cfa_offset 8
 499              		.cfi_offset 7, -8
 500              		.cfi_offset 14, -4
 501 0002 84B0     		sub	sp, sp, #16
 502              	.LCFI22:
 503              		.cfi_def_cfa_offset 24
 504 0004 00AF     		add	r7, sp, #0
 505              	.LCFI23:
 506              		.cfi_def_cfa_register 7
 507 0006 7860     		str	r0, [r7, #4]
 508 0008 0A1C     		mov	r2, r1
 509 000a FB1C     		add	r3, r7, #3
 510 000c 1A70     		strb	r2, [r3]
 376:../Generated_Code/BitsIoLdd1.c ****   uint32_t mask = 0;
 511              		.loc 1 376 0
 512 000e 0023     		mov	r3, #0
 513 0010 FB60     		str	r3, [r7, #12]
 377:../Generated_Code/BitsIoLdd1.c **** 
 378:../Generated_Code/BitsIoLdd1.c ****   (void)DeviceDataPtr;                 /* Parameter is not used, suppress unused argument warning *
 379:../Generated_Code/BitsIoLdd1.c **** 
 380:../Generated_Code/BitsIoLdd1.c ****   /* Bit number value - this test can be disabled by setting the "Ignore range checking"
 381:../Generated_Code/BitsIoLdd1.c ****      property to the "yes" value in the "Configuration inspector" */
 382:../Generated_Code/BitsIoLdd1.c ****   if (Bit > 1U) {
 514              		.loc 1 382 0
 515 0012 FB1C     		add	r3, r7, #3
 516 0014 1B78     		ldrb	r3, [r3]
 517 0016 012B     		cmp	r3, #1
 518 0018 01D9     		bls	.L32
 383:../Generated_Code/BitsIoLdd1.c ****     return ERR_PARAM_MASK;
 519              		.loc 1 383 0
 520 001a 8023     		mov	r3, #128
 521 001c 09E0     		b	.L33
 522              	.L32:
 384:../Generated_Code/BitsIoLdd1.c ****   }
 385:../Generated_Code/BitsIoLdd1.c **** 
 386:../Generated_Code/BitsIoLdd1.c ****   mask = BitsIoLdd1_PIN_MASK_MAP[Bit];
 523              		.loc 1 386 0
 524 001e FB1C     		add	r3, r7, #3
 525 0020 1A78     		ldrb	r2, [r3]
 526 0022 064B     		ldr	r3, .L34
 527 0024 9200     		lsl	r2, r2, #2
 528 0026 D358     		ldr	r3, [r2, r3]
 529 0028 FB60     		str	r3, [r7, #12]
 387:../Generated_Code/BitsIoLdd1.c ****   GPIO_PDD_ClearPortDataOutputMask(BitsIoLdd1_MODULE_BASE_ADDRESS, mask);
 530              		.loc 1 387 0
 531 002a 054B     		ldr	r3, .L34+4
 532 002c FA68     		ldr	r2, [r7, #12]
 533 002e 9A60     		str	r2, [r3, #8]
 388:../Generated_Code/BitsIoLdd1.c **** 
 389:../Generated_Code/BitsIoLdd1.c ****   return ERR_OK;
 534              		.loc 1 389 0
 535 0030 0023     		mov	r3, #0
 536              	.L33:
 390:../Generated_Code/BitsIoLdd1.c **** }
 537              		.loc 1 390 0
 538 0032 181C     		mov	r0, r3
 539 0034 BD46     		mov	sp, r7
 540 0036 04B0     		add	sp, sp, #16
 541              		@ sp needed for prologue
 542 0038 80BD     		pop	{r7, pc}
 543              	.L35:
 544 003a C046     		.align	2
 545              	.L34:
 546 003c 00000000 		.word	BitsIoLdd1_PIN_MASK_MAP
 547 0040 80F00FF8 		.word	-133173120
 548              		.cfi_endproc
 549              	.LFE7:
 551              		.section	.text.BitsIoLdd1_NegBit,"ax",%progbits
 552              		.align	2
 553              		.global	BitsIoLdd1_NegBit
 554              		.code	16
 555              		.thumb_func
 557              	BitsIoLdd1_NegBit:
 558              	.LFB8:
 391:../Generated_Code/BitsIoLdd1.c **** 
 392:../Generated_Code/BitsIoLdd1.c **** /*
 393:../Generated_Code/BitsIoLdd1.c **** ** ===================================================================
 394:../Generated_Code/BitsIoLdd1.c **** **     Method      :  BitsIoLdd1_NegBit (component BitsIO_LDD)
 395:../Generated_Code/BitsIoLdd1.c **** **
 396:../Generated_Code/BitsIoLdd1.c **** **     Description :
 397:../Generated_Code/BitsIoLdd1.c **** **         Negates (inverts) the specified bit of the Input/Output
 398:../Generated_Code/BitsIoLdd1.c **** **         component. It is the same as [PutBit(Bit,!GetBit(Bit))].
 399:../Generated_Code/BitsIoLdd1.c **** **         (Method is available only if the Direction = _[output]_ or
 400:../Generated_Code/BitsIoLdd1.c **** **         _[input/output]_).
 401:../Generated_Code/BitsIoLdd1.c **** **     Parameters  :
 402:../Generated_Code/BitsIoLdd1.c **** **         NAME            - DESCRIPTION
 403:../Generated_Code/BitsIoLdd1.c **** **       * DeviceDataPtr   - Pointer to device data
 404:../Generated_Code/BitsIoLdd1.c **** **                           structure pointer.
 405:../Generated_Code/BitsIoLdd1.c **** **         Bit             - Bit/pin number to invert
 406:../Generated_Code/BitsIoLdd1.c **** **     Returns     :
 407:../Generated_Code/BitsIoLdd1.c **** **         ---             - Error code, possible values:
 408:../Generated_Code/BitsIoLdd1.c **** **                           ERR_OK - OK
 409:../Generated_Code/BitsIoLdd1.c **** **                           ERR_PARAM_MASK - Invalid pin mask
 410:../Generated_Code/BitsIoLdd1.c **** ** ===================================================================
 411:../Generated_Code/BitsIoLdd1.c **** */
 412:../Generated_Code/BitsIoLdd1.c **** LDD_TError BitsIoLdd1_NegBit(LDD_TDeviceData *DeviceDataPtr, byte Bit)
 413:../Generated_Code/BitsIoLdd1.c **** {
 559              		.loc 1 413 0
 560              		.cfi_startproc
 561 0000 80B5     		push	{r7, lr}
 562              	.LCFI24:
 563              		.cfi_def_cfa_offset 8
 564              		.cfi_offset 7, -8
 565              		.cfi_offset 14, -4
 566 0002 84B0     		sub	sp, sp, #16
 567              	.LCFI25:
 568              		.cfi_def_cfa_offset 24
 569 0004 00AF     		add	r7, sp, #0
 570              	.LCFI26:
 571              		.cfi_def_cfa_register 7
 572 0006 7860     		str	r0, [r7, #4]
 573 0008 0A1C     		mov	r2, r1
 574 000a FB1C     		add	r3, r7, #3
 575 000c 1A70     		strb	r2, [r3]
 414:../Generated_Code/BitsIoLdd1.c ****   uint32_t mask = 0;
 576              		.loc 1 414 0
 577 000e 0023     		mov	r3, #0
 578 0010 FB60     		str	r3, [r7, #12]
 415:../Generated_Code/BitsIoLdd1.c **** 
 416:../Generated_Code/BitsIoLdd1.c ****   (void)DeviceDataPtr;                 /* Parameter is not used, suppress unused argument warning *
 417:../Generated_Code/BitsIoLdd1.c **** 
 418:../Generated_Code/BitsIoLdd1.c ****   /* Bit number value - this test can be disabled by setting the "Ignore range checking"
 419:../Generated_Code/BitsIoLdd1.c ****      property to the "yes" value in the "Configuration inspector" */
 420:../Generated_Code/BitsIoLdd1.c ****   if (Bit > 1U) {
 579              		.loc 1 420 0
 580 0012 FB1C     		add	r3, r7, #3
 581 0014 1B78     		ldrb	r3, [r3]
 582 0016 012B     		cmp	r3, #1
 583 0018 01D9     		bls	.L37
 421:../Generated_Code/BitsIoLdd1.c ****     return ERR_PARAM_MASK;
 584              		.loc 1 421 0
 585 001a 8023     		mov	r3, #128
 586 001c 09E0     		b	.L38
 587              	.L37:
 422:../Generated_Code/BitsIoLdd1.c ****   }
 423:../Generated_Code/BitsIoLdd1.c **** 
 424:../Generated_Code/BitsIoLdd1.c ****   mask = BitsIoLdd1_PIN_MASK_MAP[Bit];
 588              		.loc 1 424 0
 589 001e FB1C     		add	r3, r7, #3
 590 0020 1A78     		ldrb	r2, [r3]
 591 0022 064B     		ldr	r3, .L39
 592 0024 9200     		lsl	r2, r2, #2
 593 0026 D358     		ldr	r3, [r2, r3]
 594 0028 FB60     		str	r3, [r7, #12]
 425:../Generated_Code/BitsIoLdd1.c ****   GPIO_PDD_TogglePortDataOutputMask(BitsIoLdd1_MODULE_BASE_ADDRESS, mask);
 595              		.loc 1 425 0
 596 002a 054B     		ldr	r3, .L39+4
 597 002c FA68     		ldr	r2, [r7, #12]
 598 002e DA60     		str	r2, [r3, #12]
 426:../Generated_Code/BitsIoLdd1.c **** 
 427:../Generated_Code/BitsIoLdd1.c ****   return ERR_OK;
 599              		.loc 1 427 0
 600 0030 0023     		mov	r3, #0
 601              	.L38:
 428:../Generated_Code/BitsIoLdd1.c **** }
 602              		.loc 1 428 0
 603 0032 181C     		mov	r0, r3
 604 0034 BD46     		mov	sp, r7
 605 0036 04B0     		add	sp, sp, #16
 606              		@ sp needed for prologue
 607 0038 80BD     		pop	{r7, pc}
 608              	.L40:
 609 003a C046     		.align	2
 610              	.L39:
 611 003c 00000000 		.word	BitsIoLdd1_PIN_MASK_MAP
 612 0040 80F00FF8 		.word	-133173120
 613              		.cfi_endproc
 614              	.LFE8:
 616              		.text
 617              	.Letext0:
 618              		.file 2 "C:/Freescale/CW MCU v10.3/MCU/ARM_GCC_Support/ewl/EWL_C/include/cstdint"
 619              		.file 3 "../Generated_Code/PE_Types.h"
 620              		.file 4 "../Generated_Code/IO_Map.h"
 621              		.file 5 "../Generated_Code/PE_LDD.h"