   1              		.cpu cortex-m0
   2              		.fpu softvfp
   3              		.eabi_attribute 20, 1
   4              		.eabi_attribute 21, 1
   5              		.eabi_attribute 23, 3
   6              		.eabi_attribute 24, 1
   7              		.eabi_attribute 25, 1
   8              		.eabi_attribute 26, 1
   9              		.eabi_attribute 30, 6
  10              		.eabi_attribute 34, 0
  11              		.eabi_attribute 18, 4
  12              		.code	16
  13              		.file	"CCD_CLK.c"
  14              		.text
  15              	.Ltext0:
  16              		.cfi_sections	.debug_frame
  17              		.section	.text.CCD_CLK_GetBit,"ax",%progbits
  18              		.align	2
  19              		.global	CCD_CLK_GetBit
  20              		.code	16
  21              		.thumb_func
  23              	CCD_CLK_GetBit:
  24              	.LFB0:
  25              		.file 1 "../Generated_Code/CCD_CLK.c"
   1:../Generated_Code/CCD_CLK.c **** /** ###################################################################
   2:../Generated_Code/CCD_CLK.c **** **     THIS COMPONENT MODULE IS GENERATED BY THE TOOL. DO NOT MODIFY IT.
   3:../Generated_Code/CCD_CLK.c **** **     Filename    : CCD_CLK.c
   4:../Generated_Code/CCD_CLK.c **** **     Project     : ProcessorExpert
   5:../Generated_Code/CCD_CLK.c **** **     Processor   : MKL25Z128VLK4
   6:../Generated_Code/CCD_CLK.c **** **     Component   : BitsIO
   7:../Generated_Code/CCD_CLK.c **** **     Version     : Component 02.108, Driver 01.00, CPU db: 3.00.000
   8:../Generated_Code/CCD_CLK.c **** **     Compiler    : GNU C Compiler
   9:../Generated_Code/CCD_CLK.c **** **     Date/Time   : 2013-05-10, 22:48, # CodeGen: 0
  10:../Generated_Code/CCD_CLK.c **** **     Abstract    :
  11:../Generated_Code/CCD_CLK.c **** **         This component "BitsIO" implements a multi-bit input/output.
  12:../Generated_Code/CCD_CLK.c **** **         It uses selected pins of one 1-bit to 8-bit port.
  13:../Generated_Code/CCD_CLK.c **** **         Note: This component is set to work in Output direction only.
  14:../Generated_Code/CCD_CLK.c **** **     Settings    :
  15:../Generated_Code/CCD_CLK.c **** **         Port name                   : PTC
  16:../Generated_Code/CCD_CLK.c **** **
  17:../Generated_Code/CCD_CLK.c **** **         Bit mask of the port        : 0x3000
  18:../Generated_Code/CCD_CLK.c **** **         Number of bits/pins         : 2
  19:../Generated_Code/CCD_CLK.c **** **         Single bit numbers          : 0 to 1
  20:../Generated_Code/CCD_CLK.c **** **         Values range                : 0 to 3
  21:../Generated_Code/CCD_CLK.c **** **
  22:../Generated_Code/CCD_CLK.c **** **         Initial direction           : Output (direction cannot be changed)
  23:../Generated_Code/CCD_CLK.c **** **         Initial output value        : 0 = 000H
  24:../Generated_Code/CCD_CLK.c **** **         Initial pull option         : off
  25:../Generated_Code/CCD_CLK.c **** **
  26:../Generated_Code/CCD_CLK.c **** **         Port data register          : GPIOC_PDOR [0x400FF080]
  27:../Generated_Code/CCD_CLK.c **** **         Port control register       : GPIOC_PDDR [0x400FF094]
  28:../Generated_Code/CCD_CLK.c **** **
  29:../Generated_Code/CCD_CLK.c **** **             ----------------------------------------------------
  30:../Generated_Code/CCD_CLK.c **** **                   Bit     |   Pin   |   Name
  31:../Generated_Code/CCD_CLK.c **** **             ----------------------------------------------------
  32:../Generated_Code/CCD_CLK.c **** **                    0      |    69   |   PTC12/TPM_CLKIN0
  33:../Generated_Code/CCD_CLK.c **** **                    1      |    70   |   PTC13/TPM_CLKIN1
  34:../Generated_Code/CCD_CLK.c **** **             ----------------------------------------------------
  35:../Generated_Code/CCD_CLK.c **** **
  36:../Generated_Code/CCD_CLK.c **** **         Optimization for            : speed
  37:../Generated_Code/CCD_CLK.c **** **     Contents    :
  38:../Generated_Code/CCD_CLK.c **** **         GetDir - bool CCD_CLK_GetDir(void);
  39:../Generated_Code/CCD_CLK.c **** **         GetVal - byte CCD_CLK_GetVal(void);
  40:../Generated_Code/CCD_CLK.c **** **         PutVal - void CCD_CLK_PutVal(byte Val);
  41:../Generated_Code/CCD_CLK.c **** **         GetBit - bool CCD_CLK_GetBit(byte Bit);
  42:../Generated_Code/CCD_CLK.c **** **         PutBit - void CCD_CLK_PutBit(byte Bit, bool Val);
  43:../Generated_Code/CCD_CLK.c **** **         SetBit - void CCD_CLK_SetBit(byte Bit);
  44:../Generated_Code/CCD_CLK.c **** **         ClrBit - void CCD_CLK_ClrBit(byte Bit);
  45:../Generated_Code/CCD_CLK.c **** **         NegBit - void CCD_CLK_NegBit(byte Bit);
  46:../Generated_Code/CCD_CLK.c **** **
  47:../Generated_Code/CCD_CLK.c **** **     Copyright : 1997 - 2012 Freescale, Inc. All Rights Reserved.
  48:../Generated_Code/CCD_CLK.c **** **     
  49:../Generated_Code/CCD_CLK.c **** **     http      : www.freescale.com
  50:../Generated_Code/CCD_CLK.c **** **     mail      : support@freescale.com
  51:../Generated_Code/CCD_CLK.c **** ** ###################################################################*/
  52:../Generated_Code/CCD_CLK.c **** 
  53:../Generated_Code/CCD_CLK.c **** /* MODULE CCD_CLK. */
  54:../Generated_Code/CCD_CLK.c **** 
  55:../Generated_Code/CCD_CLK.c **** #include "CCD_CLK.h"
  56:../Generated_Code/CCD_CLK.c **** 
  57:../Generated_Code/CCD_CLK.c **** /*
  58:../Generated_Code/CCD_CLK.c **** ** ===================================================================
  59:../Generated_Code/CCD_CLK.c **** **     Method      :  CCD_CLK_GetDir (component BitsIO)
  60:../Generated_Code/CCD_CLK.c **** **
  61:../Generated_Code/CCD_CLK.c **** **     Description :
  62:../Generated_Code/CCD_CLK.c **** **         This method returns direction of the component.
  63:../Generated_Code/CCD_CLK.c **** **     Parameters  : None
  64:../Generated_Code/CCD_CLK.c **** **     Returns     :
  65:../Generated_Code/CCD_CLK.c **** **         ---        - Direction of the component (always TRUE, Output only)
  66:../Generated_Code/CCD_CLK.c **** **                      FALSE = Input, TRUE = Output
  67:../Generated_Code/CCD_CLK.c **** ** ===================================================================
  68:../Generated_Code/CCD_CLK.c **** */
  69:../Generated_Code/CCD_CLK.c **** /*
  70:../Generated_Code/CCD_CLK.c **** bool CCD_CLK_GetDir(void)
  71:../Generated_Code/CCD_CLK.c **** 
  72:../Generated_Code/CCD_CLK.c **** **  This method is implemented as a macro. See CCD_CLK.h file.  **
  73:../Generated_Code/CCD_CLK.c **** */
  74:../Generated_Code/CCD_CLK.c **** 
  75:../Generated_Code/CCD_CLK.c **** /*
  76:../Generated_Code/CCD_CLK.c **** ** ===================================================================
  77:../Generated_Code/CCD_CLK.c **** **     Method      :  CCD_CLK_GetVal (component BitsIO)
  78:../Generated_Code/CCD_CLK.c **** **
  79:../Generated_Code/CCD_CLK.c **** **     Description :
  80:../Generated_Code/CCD_CLK.c **** **         This method returns an input value.
  81:../Generated_Code/CCD_CLK.c **** **           a) direction = Input  : reads the input value from the
  82:../Generated_Code/CCD_CLK.c **** **                                   pins and returns it
  83:../Generated_Code/CCD_CLK.c **** **           b) direction = Output : returns the last written value
  84:../Generated_Code/CCD_CLK.c **** **         Note: This component is set to work in Output direction only.
  85:../Generated_Code/CCD_CLK.c **** **     Parameters  : None
  86:../Generated_Code/CCD_CLK.c **** **     Returns     :
  87:../Generated_Code/CCD_CLK.c **** **         ---        - Input value (0 to 3)
  88:../Generated_Code/CCD_CLK.c **** ** ===================================================================
  89:../Generated_Code/CCD_CLK.c **** */
  90:../Generated_Code/CCD_CLK.c **** /*
  91:../Generated_Code/CCD_CLK.c **** byte CCD_CLK_GetVal(void)
  92:../Generated_Code/CCD_CLK.c **** 
  93:../Generated_Code/CCD_CLK.c **** **  This method is implemented as a macro. See CCD_CLK.h file.  **
  94:../Generated_Code/CCD_CLK.c **** */
  95:../Generated_Code/CCD_CLK.c **** 
  96:../Generated_Code/CCD_CLK.c **** /*
  97:../Generated_Code/CCD_CLK.c **** ** ===================================================================
  98:../Generated_Code/CCD_CLK.c **** **     Method      :  CCD_CLK_PutVal (component BitsIO)
  99:../Generated_Code/CCD_CLK.c **** **
 100:../Generated_Code/CCD_CLK.c **** **     Description :
 101:../Generated_Code/CCD_CLK.c **** **         This method writes the new output value.
 102:../Generated_Code/CCD_CLK.c **** **     Parameters  :
 103:../Generated_Code/CCD_CLK.c **** **         NAME       - DESCRIPTION
 104:../Generated_Code/CCD_CLK.c **** **         Val        - Output value (0 to 3)
 105:../Generated_Code/CCD_CLK.c **** **     Returns     : Nothing
 106:../Generated_Code/CCD_CLK.c **** ** ===================================================================
 107:../Generated_Code/CCD_CLK.c **** */
 108:../Generated_Code/CCD_CLK.c **** /*
 109:../Generated_Code/CCD_CLK.c **** void CCD_CLK_PutVal(byte Val)
 110:../Generated_Code/CCD_CLK.c **** 
 111:../Generated_Code/CCD_CLK.c **** **  This method is implemented as a macro. See CCD_CLK.h file.  **
 112:../Generated_Code/CCD_CLK.c **** */
 113:../Generated_Code/CCD_CLK.c **** 
 114:../Generated_Code/CCD_CLK.c **** /*
 115:../Generated_Code/CCD_CLK.c **** ** ===================================================================
 116:../Generated_Code/CCD_CLK.c **** **     Method      :  CCD_CLK_GetBit (component BitsIO)
 117:../Generated_Code/CCD_CLK.c **** **
 118:../Generated_Code/CCD_CLK.c **** **     Description :
 119:../Generated_Code/CCD_CLK.c **** **         This method returns the specified bit of the input value.
 120:../Generated_Code/CCD_CLK.c **** **           a) direction = Input  : reads the input value from pins
 121:../Generated_Code/CCD_CLK.c **** **                                   and returns the specified bit
 122:../Generated_Code/CCD_CLK.c **** **           b) direction = Output : returns the specified bit
 123:../Generated_Code/CCD_CLK.c **** **                                   of the last written value
 124:../Generated_Code/CCD_CLK.c **** **         Note: This component is set to work in Output direction only.
 125:../Generated_Code/CCD_CLK.c **** **     Parameters  :
 126:../Generated_Code/CCD_CLK.c **** **         NAME       - DESCRIPTION
 127:../Generated_Code/CCD_CLK.c **** **         Bit        - Number of the bit to read (0 to 1)
 128:../Generated_Code/CCD_CLK.c **** **     Returns     :
 129:../Generated_Code/CCD_CLK.c **** **         ---        - Value of the specified bit (FALSE or TRUE)
 130:../Generated_Code/CCD_CLK.c **** **                      FALSE = "0" or "Low", TRUE = "1" or "High"
 131:../Generated_Code/CCD_CLK.c **** ** ===================================================================
 132:../Generated_Code/CCD_CLK.c **** */
 133:../Generated_Code/CCD_CLK.c **** bool CCD_CLK_GetBit(byte Bit)
 134:../Generated_Code/CCD_CLK.c **** {
  26              		.loc 1 134 0
  27              		.cfi_startproc
  28 0000 80B5     		push	{r7, lr}
  29              	.LCFI0:
  30              		.cfi_def_cfa_offset 8
  31              		.cfi_offset 7, -8
  32              		.cfi_offset 14, -4
  33 0002 84B0     		sub	sp, sp, #16
  34              	.LCFI1:
  35              		.cfi_def_cfa_offset 24
  36 0004 00AF     		add	r7, sp, #0
  37              	.LCFI2:
  38              		.cfi_def_cfa_register 7
  39 0006 021C     		mov	r2, r0
  40 0008 FB1D     		add	r3, r7, #7
  41 000a 1A70     		strb	r2, [r3]
 135:../Generated_Code/CCD_CLK.c ****   bool BitVal;
 136:../Generated_Code/CCD_CLK.c **** 
 137:../Generated_Code/CCD_CLK.c ****   (void)BitsIoLdd2_GetBit(BitsIoLdd2_DeviceData, Bit, &BitVal);
  42              		.loc 1 137 0
  43 000c 084B     		ldr	r3, .L2
  44 000e 596A     		ldr	r1, [r3, #36]
  45 0010 FB1D     		add	r3, r7, #7
  46 0012 1A78     		ldrb	r2, [r3]
  47 0014 3B1C     		mov	r3, r7
  48 0016 0F33     		add	r3, r3, #15
  49 0018 081C     		mov	r0, r1
  50 001a 111C     		mov	r1, r2
  51 001c 1A1C     		mov	r2, r3
  52 001e FFF7FEFF 		bl	BitsIoLdd2_GetBit
 138:../Generated_Code/CCD_CLK.c ****   return (BitVal);
  53              		.loc 1 138 0
  54 0022 3B1C     		mov	r3, r7
  55 0024 0F33     		add	r3, r3, #15
  56 0026 1B78     		ldrb	r3, [r3]
 139:../Generated_Code/CCD_CLK.c **** }
  57              		.loc 1 139 0
  58 0028 181C     		mov	r0, r3
  59 002a BD46     		mov	sp, r7
  60 002c 04B0     		add	sp, sp, #16
  61              		@ sp needed for prologue
  62 002e 80BD     		pop	{r7, pc}
  63              	.L3:
  64              		.align	2
  65              	.L2:
  66 0030 00000000 		.word	PE_LDD_DeviceDataList
  67              		.cfi_endproc
  68              	.LFE0:
  70              		.text
  71              	.Letext0:
  72              		.file 2 "../Generated_Code/PE_Types.h"
  73              		.file 3 "../Generated_Code/PE_LDD.h"