   1              		.cpu cortex-m0
   2              		.fpu softvfp
   3              		.eabi_attribute 20, 1
   4              		.eabi_attribute 21, 1
   5              		.eabi_attribute 23, 3
   6              		.eabi_attribute 24, 1
   7              		.eabi_attribute 25, 1
   8              		.eabi_attribute 26, 1
   9              		.eabi_attribute 30, 6
  10              		.eabi_attribute 34, 0
  11              		.eabi_attribute 18, 4
  12              		.code	16
  13              		.file	"EInt2.c"
  14              		.text
  15              	.Ltext0:
  16              		.cfi_sections	.debug_frame
  17              		.section	.text.ExtIntLdd2_OnInterrupt,"ax",%progbits
  18              		.align	2
  19              		.global	ExtIntLdd2_OnInterrupt
  20              		.code	16
  21              		.thumb_func
  23              	ExtIntLdd2_OnInterrupt:
  24              	.LFB0:
  25              		.file 1 "../Generated_Code/EInt2.c"
   1:../Generated_Code/EInt2.c **** /** ###################################################################
   2:../Generated_Code/EInt2.c **** **     THIS COMPONENT MODULE IS GENERATED BY THE TOOL. DO NOT MODIFY IT.
   3:../Generated_Code/EInt2.c **** **     Filename    : EInt2.c
   4:../Generated_Code/EInt2.c **** **     Project     : ProcessorExpert
   5:../Generated_Code/EInt2.c **** **     Processor   : MKL25Z128VLK4
   6:../Generated_Code/EInt2.c **** **     Component   : ExtInt
   7:../Generated_Code/EInt2.c **** **     Version     : Component 02.104, Driver 01.00, CPU db: 3.00.000
   8:../Generated_Code/EInt2.c **** **     Compiler    : GNU C Compiler
   9:../Generated_Code/EInt2.c **** **     Date/Time   : 2013-05-10, 22:48, # CodeGen: 0
  10:../Generated_Code/EInt2.c **** **     Abstract    :
  11:../Generated_Code/EInt2.c **** **         This component "ExtInt" implements an external 
  12:../Generated_Code/EInt2.c **** **         interrupt, its control methods and interrupt/event 
  13:../Generated_Code/EInt2.c **** **         handling procedure.
  14:../Generated_Code/EInt2.c **** **         The component uses one pin which generates interrupt on 
  15:../Generated_Code/EInt2.c **** **         selected edge.
  16:../Generated_Code/EInt2.c **** **     Settings    :
  17:../Generated_Code/EInt2.c **** **         Interrupt name              : INT_PORTA
  18:../Generated_Code/EInt2.c **** **         User handling procedure     : EInt2_OnInterrupt
  19:../Generated_Code/EInt2.c **** **
  20:../Generated_Code/EInt2.c **** **         Used pin                    :
  21:../Generated_Code/EInt2.c **** **             ----------------------------------------------------
  22:../Generated_Code/EInt2.c **** **                Number (on package)  |    Name
  23:../Generated_Code/EInt2.c **** **             ----------------------------------------------------
  24:../Generated_Code/EInt2.c **** **                       33            |  PTA13/TPM1_CH1
  25:../Generated_Code/EInt2.c **** **             ----------------------------------------------------
  26:../Generated_Code/EInt2.c **** **
  27:../Generated_Code/EInt2.c **** **         Port name                   : PTA
  28:../Generated_Code/EInt2.c **** **
  29:../Generated_Code/EInt2.c **** **         Bit number (in port)        : 13
  30:../Generated_Code/EInt2.c **** **         Bit mask of the port        : 0x2000
  31:../Generated_Code/EInt2.c **** **
  32:../Generated_Code/EInt2.c **** **         Signal edge/level           : falling
  33:../Generated_Code/EInt2.c **** **         Priority                    : 0
  34:../Generated_Code/EInt2.c **** **         Pull option                 : off
  35:../Generated_Code/EInt2.c **** **         Initial state               : Enabled
  36:../Generated_Code/EInt2.c **** **
  37:../Generated_Code/EInt2.c **** **
  38:../Generated_Code/EInt2.c **** **         Port data register          : GPIOA_PDOR [0x400FF000]
  39:../Generated_Code/EInt2.c **** **         Port control register       : GPIOA_PDDR [0x400FF014]
  40:../Generated_Code/EInt2.c **** **     Contents    :
  41:../Generated_Code/EInt2.c **** **         GetVal - bool EInt2_GetVal(void);
  42:../Generated_Code/EInt2.c **** **
  43:../Generated_Code/EInt2.c **** **     Copyright : 1997 - 2012 Freescale, Inc. All Rights Reserved.
  44:../Generated_Code/EInt2.c **** **     
  45:../Generated_Code/EInt2.c **** **     http      : www.freescale.com
  46:../Generated_Code/EInt2.c **** **     mail      : support@freescale.com
  47:../Generated_Code/EInt2.c **** ** ###################################################################*/
  48:../Generated_Code/EInt2.c **** 
  49:../Generated_Code/EInt2.c **** /* MODULE EInt2. */
  50:../Generated_Code/EInt2.c **** 
  51:../Generated_Code/EInt2.c **** #include "Events.h"
  52:../Generated_Code/EInt2.c **** #include "EInt2.h"
  53:../Generated_Code/EInt2.c **** 
  54:../Generated_Code/EInt2.c **** /*
  55:../Generated_Code/EInt2.c **** ** ===================================================================
  56:../Generated_Code/EInt2.c **** **     Method      :  EInt2_GetVal (component ExtInt)
  57:../Generated_Code/EInt2.c **** **
  58:../Generated_Code/EInt2.c **** **     Description :
  59:../Generated_Code/EInt2.c **** **         Returns the actual value of the input pin of the component.
  60:../Generated_Code/EInt2.c **** **     Parameters  : None
  61:../Generated_Code/EInt2.c **** **     Returns     :
  62:../Generated_Code/EInt2.c **** **         ---             - Returned input value. Possible values:
  63:../Generated_Code/EInt2.c **** **                           <false> - logical "0" (Low level) <true> -
  64:../Generated_Code/EInt2.c **** **                           logical "1" (High level)
  65:../Generated_Code/EInt2.c **** ** ===================================================================
  66:../Generated_Code/EInt2.c **** */
  67:../Generated_Code/EInt2.c **** /*
  68:../Generated_Code/EInt2.c **** bool EInt2_GetVal(void)
  69:../Generated_Code/EInt2.c **** 
  70:../Generated_Code/EInt2.c **** **  This method is implemented as a macro. See EInt2.h file.  **
  71:../Generated_Code/EInt2.c **** */
  72:../Generated_Code/EInt2.c **** 
  73:../Generated_Code/EInt2.c **** /*
  74:../Generated_Code/EInt2.c **** ** ===================================================================
  75:../Generated_Code/EInt2.c **** **     Method      :  EInt2_OnInterrupt (component ExtInt)
  76:../Generated_Code/EInt2.c **** **
  77:../Generated_Code/EInt2.c **** **     Description :
  78:../Generated_Code/EInt2.c **** **         This method is internal. It is used by Processor Expert only.
  79:../Generated_Code/EInt2.c **** ** ===================================================================
  80:../Generated_Code/EInt2.c **** */
  81:../Generated_Code/EInt2.c **** void ExtIntLdd2_OnInterrupt(LDD_TUserData *UserDataPtr)
  82:../Generated_Code/EInt2.c **** {
  26              		.loc 1 82 0
  27              		.cfi_startproc
  28 0000 80B5     		push	{r7, lr}
  29              	.LCFI0:
  30              		.cfi_def_cfa_offset 8
  31              		.cfi_offset 7, -8
  32              		.cfi_offset 14, -4
  33 0002 82B0     		sub	sp, sp, #8
  34              	.LCFI1:
  35              		.cfi_def_cfa_offset 16
  36 0004 00AF     		add	r7, sp, #0
  37              	.LCFI2:
  38              		.cfi_def_cfa_register 7
  39 0006 7860     		str	r0, [r7, #4]
  83:../Generated_Code/EInt2.c ****   (void)UserDataPtr;                   /* Parameter is not used, suppress unused argument warning *
  84:../Generated_Code/EInt2.c ****   EInt2_OnInterrupt();                 /* Invoke OnInterrupt event */
  40              		.loc 1 84 0
  41 0008 FFF7FEFF 		bl	EInt2_OnInterrupt
  85:../Generated_Code/EInt2.c **** }
  42              		.loc 1 85 0
  43 000c BD46     		mov	sp, r7
  44 000e 02B0     		add	sp, sp, #8
  45              		@ sp needed for prologue
  46 0010 80BD     		pop	{r7, pc}
  47              		.cfi_endproc
  48              	.LFE0:
  50 0012 C046     		.text
  51              	.Letext0:
  52              		.file 2 "C:/workspace/USBDM/Generated_Code/PE_LDD.h"