   1              		.cpu cortex-m0
   2              		.fpu softvfp
   3              		.eabi_attribute 20, 1
   4              		.eabi_attribute 21, 1
   5              		.eabi_attribute 23, 3
   6              		.eabi_attribute 24, 1
   7              		.eabi_attribute 25, 1
   8              		.eabi_attribute 26, 1
   9              		.eabi_attribute 30, 6
  10              		.eabi_attribute 34, 0
  11              		.eabi_attribute 18, 4
  12              		.code	16
  13              		.file	"PwmLdd1.c"
  14              		.text
  15              	.Ltext0:
  16              		.cfi_sections	.debug_frame
  17              		.section	.bss.DeviceDataPrv__DEFAULT_RTOS_ALLOC,"aw",%nobits
  18              		.align	2
  21              	DeviceDataPrv__DEFAULT_RTOS_ALLOC:
  22 0000 00000000 		.space	12
  22      00000000 
  22      00000000 
  23              		.section	.text.PwmLdd1_Init,"ax",%progbits
  24              		.align	2
  25              		.global	PwmLdd1_Init
  26              		.code	16
  27              		.thumb_func
  29              	PwmLdd1_Init:
  30              	.LFB0:
  31              		.file 1 "../Generated_Code/PwmLdd1.c"
   1:../Generated_Code/PwmLdd1.c **** /** ###################################################################
   2:../Generated_Code/PwmLdd1.c **** **     THIS COMPONENT MODULE IS GENERATED BY THE TOOL. DO NOT MODIFY IT.
   3:../Generated_Code/PwmLdd1.c **** **     Filename    : PwmLdd1.c
   4:../Generated_Code/PwmLdd1.c **** **     Project     : ProcessorExpert
   5:../Generated_Code/PwmLdd1.c **** **     Processor   : MKL25Z128VLK4
   6:../Generated_Code/PwmLdd1.c **** **     Component   : PWM_LDD
   7:../Generated_Code/PwmLdd1.c **** **     Version     : Component 01.000, Driver 01.00, CPU db: 3.00.000
   8:../Generated_Code/PwmLdd1.c **** **     Compiler    : GNU C Compiler
   9:../Generated_Code/PwmLdd1.c **** **     Date/Time   : 2013-05-17, 16:57, # CodeGen: 60
  10:../Generated_Code/PwmLdd1.c **** **     Abstract    :
  11:../Generated_Code/PwmLdd1.c **** **          This component implements a pulse-width modulation generator
  12:../Generated_Code/PwmLdd1.c **** **          that generates signal with variable duty and fixed cycle.
  13:../Generated_Code/PwmLdd1.c **** **          This PWM component provides a high level API for unified
  14:../Generated_Code/PwmLdd1.c **** **          hardware access to various timer devices using the TimerUnit
  15:../Generated_Code/PwmLdd1.c **** **          component.
  16:../Generated_Code/PwmLdd1.c **** **     Settings    :
  17:../Generated_Code/PwmLdd1.c **** **          Component name                                 : PwmLdd1
  18:../Generated_Code/PwmLdd1.c **** **          Period device                                  : TPM0_MOD
  19:../Generated_Code/PwmLdd1.c **** **          Duty device                                    : TPM0_C1V
  20:../Generated_Code/PwmLdd1.c **** **          Output pin                                     : TSI0_CH5/PTA4/I2C1_SDA/TPM0_CH1/NMI_b
  21:../Generated_Code/PwmLdd1.c **** **          Output pin signal                              : 
  22:../Generated_Code/PwmLdd1.c **** **          Counter                                        : TPM0_CNT
  23:../Generated_Code/PwmLdd1.c **** **          Linked TimerUnit                               : TU1
  24:../Generated_Code/PwmLdd1.c **** **          Interrupt service/event                        : Disabled
  25:../Generated_Code/PwmLdd1.c **** **          Period                                         : 2 ms
  26:../Generated_Code/PwmLdd1.c **** **          Starting pulse width                           : 1 ms
  27:../Generated_Code/PwmLdd1.c **** **          Initial polarity                               : low
  28:../Generated_Code/PwmLdd1.c **** **          Initialization                                 : 
  29:../Generated_Code/PwmLdd1.c **** **            Enabled in init. code                        : yes
  30:../Generated_Code/PwmLdd1.c **** **            Auto initialization                          : yes
  31:../Generated_Code/PwmLdd1.c **** **            Event mask                                   : 
  32:../Generated_Code/PwmLdd1.c **** **              OnEnd                                      : Disabled
  33:../Generated_Code/PwmLdd1.c **** **          CPU clock/configuration selection              : 
  34:../Generated_Code/PwmLdd1.c **** **            Clock configuration 0                        : This component enabled
  35:../Generated_Code/PwmLdd1.c **** **            Clock configuration 1                        : This component disabled
  36:../Generated_Code/PwmLdd1.c **** **            Clock configuration 2                        : This component disabled
  37:../Generated_Code/PwmLdd1.c **** **            Clock configuration 3                        : This component enabled
  38:../Generated_Code/PwmLdd1.c **** **            Clock configuration 4                        : This component enabled
  39:../Generated_Code/PwmLdd1.c **** **            Clock configuration 5                        : This component enabled
  40:../Generated_Code/PwmLdd1.c **** **            Clock configuration 6                        : This component enabled
  41:../Generated_Code/PwmLdd1.c **** **            Clock configuration 7                        : This component enabled
  42:../Generated_Code/PwmLdd1.c **** **     Contents    :
  43:../Generated_Code/PwmLdd1.c **** **         Init       - LDD_TDeviceData* PwmLdd1_Init(LDD_TUserData *UserDataPtr);
  44:../Generated_Code/PwmLdd1.c **** **         Deinit     - void PwmLdd1_Deinit(LDD_TDeviceData *DeviceDataPtr);
  45:../Generated_Code/PwmLdd1.c **** **         SetRatio16 - LDD_TError PwmLdd1_SetRatio16(LDD_TDeviceData *DeviceDataPtr, uint16_t Rati
  46:../Generated_Code/PwmLdd1.c **** **         SetDutyUS  - LDD_TError PwmLdd1_SetDutyUS(LDD_TDeviceData *DeviceDataPtr, uint16_t Time)
  47:../Generated_Code/PwmLdd1.c **** **         SetDutyMS  - LDD_TError PwmLdd1_SetDutyMS(LDD_TDeviceData *DeviceDataPtr, uint16_t Time)
  48:../Generated_Code/PwmLdd1.c **** **
  49:../Generated_Code/PwmLdd1.c **** **     Copyright : 1997 - 2012 Freescale, Inc. All Rights Reserved.
  50:../Generated_Code/PwmLdd1.c **** **     
  51:../Generated_Code/PwmLdd1.c **** **     http      : www.freescale.com
  52:../Generated_Code/PwmLdd1.c **** **     mail      : support@freescale.com
  53:../Generated_Code/PwmLdd1.c **** ** ###################################################################*/
  54:../Generated_Code/PwmLdd1.c **** 
  55:../Generated_Code/PwmLdd1.c **** /* MODULE PwmLdd1. */
  56:../Generated_Code/PwmLdd1.c **** 
  57:../Generated_Code/PwmLdd1.c **** #include "PwmLdd1.h"
  58:../Generated_Code/PwmLdd1.c **** /* {Default RTOS Adapter} No RTOS includes */
  59:../Generated_Code/PwmLdd1.c **** 
  60:../Generated_Code/PwmLdd1.c **** typedef struct {
  61:../Generated_Code/PwmLdd1.c ****   LDD_TDeviceData *LinkedDeviceDataPtr;
  62:../Generated_Code/PwmLdd1.c ****   bool EnUser;                         /* Enable/Disable device */
  63:../Generated_Code/PwmLdd1.c ****   uint16_t RatioStore;                 /* Ratio of L-level to H-level */
  64:../Generated_Code/PwmLdd1.c ****   LDD_TUserData *UserDataPtr;          /* RTOS device data structure */
  65:../Generated_Code/PwmLdd1.c **** } PwmLdd1_TDeviceData;
  66:../Generated_Code/PwmLdd1.c **** 
  67:../Generated_Code/PwmLdd1.c **** typedef PwmLdd1_TDeviceData *PwmLdd1_TDeviceDataPtr; /* Pointer to the device data structure. */
  68:../Generated_Code/PwmLdd1.c **** 
  69:../Generated_Code/PwmLdd1.c **** /* {Default RTOS Adapter} Static object used for simulation of dynamic driver memory allocation */
  70:../Generated_Code/PwmLdd1.c **** static PwmLdd1_TDeviceData DeviceDataPrv__DEFAULT_RTOS_ALLOC;
  71:../Generated_Code/PwmLdd1.c **** 
  72:../Generated_Code/PwmLdd1.c **** #define CHANNEL 0x00U
  73:../Generated_Code/PwmLdd1.c **** /* Internal method prototypes */
  74:../Generated_Code/PwmLdd1.c **** static void SetRatio(LDD_TDeviceData *DeviceDataPtr);
  75:../Generated_Code/PwmLdd1.c **** /*
  76:../Generated_Code/PwmLdd1.c **** ** ===================================================================
  77:../Generated_Code/PwmLdd1.c **** **     Method      :  PwmLdd1_Init (component PWM_LDD)
  78:../Generated_Code/PwmLdd1.c **** **
  79:../Generated_Code/PwmLdd1.c **** **     Description :
  80:../Generated_Code/PwmLdd1.c **** **         Initializes the device. Allocates memory for the device data
  81:../Generated_Code/PwmLdd1.c **** **         structure, allocates interrupt vectors and sets interrupt
  82:../Generated_Code/PwmLdd1.c **** **         priority, sets pin routing, sets timing, etc. If the
  83:../Generated_Code/PwmLdd1.c **** **         property <"Enable in init. code"> is set to "yes" value then
  84:../Generated_Code/PwmLdd1.c **** **         the device is also enabled (see the description of the
  85:../Generated_Code/PwmLdd1.c **** **         <Enable> method). In this case the <Enable> method is not
  86:../Generated_Code/PwmLdd1.c **** **         necessary and needn't to be generated. This method can be
  87:../Generated_Code/PwmLdd1.c **** **         called only once. Before the second call of Init the <Deinit>
  88:../Generated_Code/PwmLdd1.c **** **         must be called first.
  89:../Generated_Code/PwmLdd1.c **** **     Parameters  :
  90:../Generated_Code/PwmLdd1.c **** **         NAME            - DESCRIPTION
  91:../Generated_Code/PwmLdd1.c **** **       * UserDataPtr     - Pointer to the user or
  92:../Generated_Code/PwmLdd1.c **** **                           RTOS specific data. This pointer will be
  93:../Generated_Code/PwmLdd1.c **** **                           passed as an event or callback parameter.
  94:../Generated_Code/PwmLdd1.c **** **     Returns     :
  95:../Generated_Code/PwmLdd1.c **** **         ---             - Pointer to the dynamically allocated
  96:../Generated_Code/PwmLdd1.c **** **                           private structure or NULL if there was an
  97:../Generated_Code/PwmLdd1.c **** **                           error.
  98:../Generated_Code/PwmLdd1.c **** ** ===================================================================
  99:../Generated_Code/PwmLdd1.c **** */
 100:../Generated_Code/PwmLdd1.c **** LDD_TDeviceData* PwmLdd1_Init(LDD_TUserData *UserDataPtr)
 101:../Generated_Code/PwmLdd1.c **** {
  32              		.loc 1 101 0
  33              		.cfi_startproc
  34 0000 80B5     		push	{r7, lr}
  35              	.LCFI0:
  36              		.cfi_def_cfa_offset 8
  37              		.cfi_offset 7, -8
  38              		.cfi_offset 14, -4
  39 0002 84B0     		sub	sp, sp, #16
  40              	.LCFI1:
  41              		.cfi_def_cfa_offset 24
  42 0004 00AF     		add	r7, sp, #0
  43              	.LCFI2:
  44              		.cfi_def_cfa_register 7
  45 0006 7860     		str	r0, [r7, #4]
 102:../Generated_Code/PwmLdd1.c ****   /* Allocate device structure */
 103:../Generated_Code/PwmLdd1.c ****   PwmLdd1_TDeviceData *DeviceDataPrv;
 104:../Generated_Code/PwmLdd1.c ****   /* {Default RTOS Adapter} Driver memory allocation: Dynamic allocation is simulated by a pointer 
 105:../Generated_Code/PwmLdd1.c ****   DeviceDataPrv = &DeviceDataPrv__DEFAULT_RTOS_ALLOC;
  46              		.loc 1 105 0
  47 0008 0F4B     		ldr	r3, .L4
  48 000a FB60     		str	r3, [r7, #12]
 106:../Generated_Code/PwmLdd1.c ****   DeviceDataPrv->UserDataPtr = UserDataPtr; /* Store the RTOS device structure */
  49              		.loc 1 106 0
  50 000c FB68     		ldr	r3, [r7, #12]
  51 000e 7A68     		ldr	r2, [r7, #4]
  52 0010 9A60     		str	r2, [r3, #8]
 107:../Generated_Code/PwmLdd1.c ****   DeviceDataPrv->EnUser = TRUE;        /* Set the flag "device enabled" */
  53              		.loc 1 107 0
  54 0012 FB68     		ldr	r3, [r7, #12]
  55 0014 0122     		mov	r2, #1
  56 0016 1A71     		strb	r2, [r3, #4]
 108:../Generated_Code/PwmLdd1.c ****   DeviceDataPrv->RatioStore = 0x7FFFU; /* Ratio after initialization */
  57              		.loc 1 108 0
  58 0018 FB68     		ldr	r3, [r7, #12]
  59 001a 0C4A     		ldr	r2, .L4+4
  60 001c DA80     		strh	r2, [r3, #6]
 109:../Generated_Code/PwmLdd1.c ****   DeviceDataPrv->LinkedDeviceDataPtr = TU1_Init((LDD_TUserData *)NULL);
  61              		.loc 1 109 0
  62 001e 0020     		mov	r0, #0
  63 0020 FFF7FEFF 		bl	TU1_Init
  64 0024 021C     		mov	r2, r0
  65 0026 FB68     		ldr	r3, [r7, #12]
  66 0028 1A60     		str	r2, [r3]
 110:../Generated_Code/PwmLdd1.c ****   if (DeviceDataPrv->LinkedDeviceDataPtr == NULL) { /* Is initialization of TimerUnit unsuccessful?
  67              		.loc 1 110 0
  68 002a FB68     		ldr	r3, [r7, #12]
  69 002c 1B68     		ldr	r3, [r3]
  70 002e 002B     		cmp	r3, #0
  71 0030 01D1     		bne	.L2
 111:../Generated_Code/PwmLdd1.c ****     /* Deallocation of the device structure */
 112:../Generated_Code/PwmLdd1.c ****     /* {Default RTOS Adapter} Driver memory deallocation: Dynamic allocation is simulated, no deall
 113:../Generated_Code/PwmLdd1.c ****     return NULL;                       /* If so, then the PWM initialization is also unsuccessful *
  72              		.loc 1 113 0
  73 0032 0023     		mov	r3, #0
  74 0034 03E0     		b	.L3
  75              	.L2:
 114:../Generated_Code/PwmLdd1.c ****   }
 115:../Generated_Code/PwmLdd1.c ****   /* Registration of the device structure */
 116:../Generated_Code/PwmLdd1.c ****   PE_LDD_RegisterDeviceStructure(PE_LDD_COMPONENT_PwmLdd1_ID,DeviceDataPrv);
  76              		.loc 1 116 0
  77 0036 064B     		ldr	r3, .L4+8
  78 0038 FA68     		ldr	r2, [r7, #12]
  79 003a 9A61     		str	r2, [r3, #24]
 117:../Generated_Code/PwmLdd1.c ****   return ((LDD_TDeviceData *)DeviceDataPrv); /* Return pointer to the device data structure */
  80              		.loc 1 117 0
  81 003c FB68     		ldr	r3, [r7, #12]
  82              	.L3:
 118:../Generated_Code/PwmLdd1.c **** }
  83              		.loc 1 118 0
  84 003e 181C     		mov	r0, r3
  85 0040 BD46     		mov	sp, r7
  86 0042 04B0     		add	sp, sp, #16
  87              		@ sp needed for prologue
  88 0044 80BD     		pop	{r7, pc}
  89              	.L5:
  90 0046 C046     		.align	2
  91              	.L4:
  92 0048 00000000 		.word	DeviceDataPrv__DEFAULT_RTOS_ALLOC
  93 004c FF7F0000 		.word	32767
  94 0050 00000000 		.word	PE_LDD_DeviceDataList
  95              		.cfi_endproc
  96              	.LFE0:
  98              		.section	.text.PwmLdd1_Deinit,"ax",%progbits
  99              		.align	2
 100              		.global	PwmLdd1_Deinit
 101              		.code	16
 102              		.thumb_func
 104              	PwmLdd1_Deinit:
 105              	.LFB1:
 119:../Generated_Code/PwmLdd1.c **** 
 120:../Generated_Code/PwmLdd1.c **** /*
 121:../Generated_Code/PwmLdd1.c **** ** ===================================================================
 122:../Generated_Code/PwmLdd1.c **** **     Method      :  PwmLdd1_Deinit (component PWM_LDD)
 123:../Generated_Code/PwmLdd1.c **** **
 124:../Generated_Code/PwmLdd1.c **** **     Description :
 125:../Generated_Code/PwmLdd1.c **** **         Deinitializes the device. Switches off the device, frees the
 126:../Generated_Code/PwmLdd1.c **** **         device data structure memory, interrupts vectors, etc.
 127:../Generated_Code/PwmLdd1.c **** **     Parameters  :
 128:../Generated_Code/PwmLdd1.c **** **         NAME            - DESCRIPTION
 129:../Generated_Code/PwmLdd1.c **** **       * DeviceDataPtr   - Device data structure
 130:../Generated_Code/PwmLdd1.c **** **                           pointer returned by Init method
 131:../Generated_Code/PwmLdd1.c **** **     Returns     : Nothing
 132:../Generated_Code/PwmLdd1.c **** ** ===================================================================
 133:../Generated_Code/PwmLdd1.c **** */
 134:../Generated_Code/PwmLdd1.c **** void PwmLdd1_Deinit(LDD_TDeviceData *DeviceDataPtr)
 135:../Generated_Code/PwmLdd1.c **** {
 106              		.loc 1 135 0
 107              		.cfi_startproc
 108 0000 80B5     		push	{r7, lr}
 109              	.LCFI3:
 110              		.cfi_def_cfa_offset 8
 111              		.cfi_offset 7, -8
 112              		.cfi_offset 14, -4
 113 0002 84B0     		sub	sp, sp, #16
 114              	.LCFI4:
 115              		.cfi_def_cfa_offset 24
 116 0004 00AF     		add	r7, sp, #0
 117              	.LCFI5:
 118              		.cfi_def_cfa_register 7
 119 0006 7860     		str	r0, [r7, #4]
 136:../Generated_Code/PwmLdd1.c ****   PwmLdd1_TDeviceData *DeviceDataPrv = (PwmLdd1_TDeviceData *)DeviceDataPtr;
 120              		.loc 1 136 0
 121 0008 7B68     		ldr	r3, [r7, #4]
 122 000a FB60     		str	r3, [r7, #12]
 137:../Generated_Code/PwmLdd1.c **** 
 138:../Generated_Code/PwmLdd1.c ****   TU1_Deinit(DeviceDataPrv->LinkedDeviceDataPtr);
 123              		.loc 1 138 0
 124 000c FB68     		ldr	r3, [r7, #12]
 125 000e 1B68     		ldr	r3, [r3]
 126 0010 181C     		mov	r0, r3
 127 0012 FFF7FEFF 		bl	TU1_Deinit
 139:../Generated_Code/PwmLdd1.c ****   /* Unregistration of the device structure */
 140:../Generated_Code/PwmLdd1.c ****   PE_LDD_UnregisterDeviceStructure(PE_LDD_COMPONENT_PwmLdd1_ID);
 128              		.loc 1 140 0
 129 0016 034B     		ldr	r3, .L7
 130 0018 0022     		mov	r2, #0
 131 001a 9A61     		str	r2, [r3, #24]
 141:../Generated_Code/PwmLdd1.c ****   /* Deallocation of the device structure */
 142:../Generated_Code/PwmLdd1.c ****   /* {Default RTOS Adapter} Driver memory deallocation: Dynamic allocation is simulated, no dealloc
 143:../Generated_Code/PwmLdd1.c **** }
 132              		.loc 1 143 0
 133 001c BD46     		mov	sp, r7
 134 001e 04B0     		add	sp, sp, #16
 135              		@ sp needed for prologue
 136 0020 80BD     		pop	{r7, pc}
 137              	.L8:
 138 0022 C046     		.align	2
 139              	.L7:
 140 0024 00000000 		.word	PE_LDD_DeviceDataList
 141              		.cfi_endproc
 142              	.LFE1:
 144              		.section	.text.PwmLdd1_SetRatio16,"ax",%progbits
 145              		.align	2
 146              		.global	PwmLdd1_SetRatio16
 147              		.code	16
 148              		.thumb_func
 150              	PwmLdd1_SetRatio16:
 151              	.LFB2:
 144:../Generated_Code/PwmLdd1.c **** 
 145:../Generated_Code/PwmLdd1.c **** /*
 146:../Generated_Code/PwmLdd1.c **** ** ===================================================================
 147:../Generated_Code/PwmLdd1.c **** **     Method      :  PwmLdd1_SetRatio16 (component PWM_LDD)
 148:../Generated_Code/PwmLdd1.c **** **
 149:../Generated_Code/PwmLdd1.c **** **     Description :
 150:../Generated_Code/PwmLdd1.c **** **         This method sets a new duty-cycle ratio. Ratio is expressed
 151:../Generated_Code/PwmLdd1.c **** **         as a 16-bit unsigned integer number. 0 - FFFF value is
 152:../Generated_Code/PwmLdd1.c **** **         proportional to ratio 0 - 100%. The method is available
 153:../Generated_Code/PwmLdd1.c **** **         only if it is not selected list of predefined values in
 154:../Generated_Code/PwmLdd1.c **** **         <Starting pulse width> property. 
 155:../Generated_Code/PwmLdd1.c **** **         Note: Calculated duty depends on the timer possibilities and
 156:../Generated_Code/PwmLdd1.c **** **         on the selected period.
 157:../Generated_Code/PwmLdd1.c **** **     Parameters  :
 158:../Generated_Code/PwmLdd1.c **** **         NAME            - DESCRIPTION
 159:../Generated_Code/PwmLdd1.c **** **       * DeviceDataPtr   - Device data structure
 160:../Generated_Code/PwmLdd1.c **** **                           pointer returned by <Init> method.
 161:../Generated_Code/PwmLdd1.c **** **         Ratio           - Ratio to set. 0 - 65535 value is
 162:../Generated_Code/PwmLdd1.c **** **                           proportional to ratio 0 - 100%
 163:../Generated_Code/PwmLdd1.c **** **     Returns     :
 164:../Generated_Code/PwmLdd1.c **** **         ---             - Error code, possible codes:
 165:../Generated_Code/PwmLdd1.c **** **                           ERR_OK - OK
 166:../Generated_Code/PwmLdd1.c **** **                           ERR_SPEED - The component does not work in
 167:../Generated_Code/PwmLdd1.c **** **                           the active clock configuration
 168:../Generated_Code/PwmLdd1.c **** ** ===================================================================
 169:../Generated_Code/PwmLdd1.c **** */
 170:../Generated_Code/PwmLdd1.c **** LDD_TError PwmLdd1_SetRatio16(LDD_TDeviceData *DeviceDataPtr, uint16_t Ratio)
 171:../Generated_Code/PwmLdd1.c **** {
 152              		.loc 1 171 0
 153              		.cfi_startproc
 154 0000 80B5     		push	{r7, lr}
 155              	.LCFI6:
 156              		.cfi_def_cfa_offset 8
 157              		.cfi_offset 7, -8
 158              		.cfi_offset 14, -4
 159 0002 84B0     		sub	sp, sp, #16
 160              	.LCFI7:
 161              		.cfi_def_cfa_offset 24
 162 0004 00AF     		add	r7, sp, #0
 163              	.LCFI8:
 164              		.cfi_def_cfa_register 7
 165 0006 7860     		str	r0, [r7, #4]
 166 0008 0A1C     		mov	r2, r1
 167 000a BB1C     		add	r3, r7, #2
 168 000c 1A80     		strh	r2, [r3]
 172:../Generated_Code/PwmLdd1.c ****   PwmLdd1_TDeviceData *DeviceDataPrv = (PwmLdd1_TDeviceData *)DeviceDataPtr;
 169              		.loc 1 172 0
 170 000e 7B68     		ldr	r3, [r7, #4]
 171 0010 FB60     		str	r3, [r7, #12]
 173:../Generated_Code/PwmLdd1.c **** 
 174:../Generated_Code/PwmLdd1.c ****   DeviceDataPrv->RatioStore = Ratio;   /* Store new value of the ratio */
 172              		.loc 1 174 0
 173 0012 FB68     		ldr	r3, [r7, #12]
 174 0014 BA1C     		add	r2, r7, #2
 175 0016 1288     		ldrh	r2, [r2]
 176 0018 DA80     		strh	r2, [r3, #6]
 175:../Generated_Code/PwmLdd1.c ****   SetRatio(DeviceDataPrv);
 177              		.loc 1 175 0
 178 001a FB68     		ldr	r3, [r7, #12]
 179 001c 181C     		mov	r0, r3
 180 001e FFF7FEFF 		bl	SetRatio
 176:../Generated_Code/PwmLdd1.c ****   return ERR_OK;
 181              		.loc 1 176 0
 182 0022 0023     		mov	r3, #0
 177:../Generated_Code/PwmLdd1.c **** }
 183              		.loc 1 177 0
 184 0024 181C     		mov	r0, r3
 185 0026 BD46     		mov	sp, r7
 186 0028 04B0     		add	sp, sp, #16
 187              		@ sp needed for prologue
 188 002a 80BD     		pop	{r7, pc}
 189              		.cfi_endproc
 190              	.LFE2:
 192              		.global	__aeabi_i2f
 193              		.global	__aeabi_fmul
 194              		.global	__aeabi_fcmpgt
 195              		.global	__aeabi_f2uiz
 196              		.section	.text.PwmLdd1_SetDutyUS,"ax",%progbits
 197              		.align	2
 198              		.global	PwmLdd1_SetDutyUS
 199              		.code	16
 200              		.thumb_func
 202              	PwmLdd1_SetDutyUS:
 203              	.LFB3:
 178:../Generated_Code/PwmLdd1.c **** 
 179:../Generated_Code/PwmLdd1.c **** /*
 180:../Generated_Code/PwmLdd1.c **** ** ===================================================================
 181:../Generated_Code/PwmLdd1.c **** **     Method      :  PwmLdd1_SetDutyUS (component PWM_LDD)
 182:../Generated_Code/PwmLdd1.c **** **
 183:../Generated_Code/PwmLdd1.c **** **     Description :
 184:../Generated_Code/PwmLdd1.c **** **         This method sets the new duty value of the output signal.
 185:../Generated_Code/PwmLdd1.c **** **         The duty is expressed in microseconds as a 16-bit unsigned
 186:../Generated_Code/PwmLdd1.c **** **         integer number. The method is available only if it is not
 187:../Generated_Code/PwmLdd1.c **** **         selected list of predefined values in <Starting pulse width>
 188:../Generated_Code/PwmLdd1.c **** **         property.
 189:../Generated_Code/PwmLdd1.c **** **     Parameters  :
 190:../Generated_Code/PwmLdd1.c **** **         NAME            - DESCRIPTION
 191:../Generated_Code/PwmLdd1.c **** **       * DeviceDataPtr   - Device data structure
 192:../Generated_Code/PwmLdd1.c **** **                           pointer returned by <Init> method.
 193:../Generated_Code/PwmLdd1.c **** **         Time            - Duty to set [in microseconds]
 194:../Generated_Code/PwmLdd1.c **** **     Returns     :
 195:../Generated_Code/PwmLdd1.c **** **         ---             - Error code, possible codes:
 196:../Generated_Code/PwmLdd1.c **** **                           ERR_OK - OK
 197:../Generated_Code/PwmLdd1.c **** **                           ERR_SPEED - The component does not work in
 198:../Generated_Code/PwmLdd1.c **** **                           the active clock configuration
 199:../Generated_Code/PwmLdd1.c **** **                           ERR_MATH - Overflow during evaluation
 200:../Generated_Code/PwmLdd1.c **** **                           ERR_RANGE - Parameter out of range
 201:../Generated_Code/PwmLdd1.c **** ** ===================================================================
 202:../Generated_Code/PwmLdd1.c **** */
 203:../Generated_Code/PwmLdd1.c **** LDD_TError PwmLdd1_SetDutyUS(LDD_TDeviceData *DeviceDataPtr, uint16_t Time)
 204:../Generated_Code/PwmLdd1.c **** {
 204              		.loc 1 204 0
 205              		.cfi_startproc
 206 0000 90B5     		push	{r4, r7, lr}
 207              	.LCFI9:
 208              		.cfi_def_cfa_offset 12
 209              		.cfi_offset 4, -12
 210              		.cfi_offset 7, -8
 211              		.cfi_offset 14, -4
 212 0002 85B0     		sub	sp, sp, #20
 213              	.LCFI10:
 214              		.cfi_def_cfa_offset 32
 215 0004 00AF     		add	r7, sp, #0
 216              	.LCFI11:
 217              		.cfi_def_cfa_register 7
 218 0006 7860     		str	r0, [r7, #4]
 219 0008 0A1C     		mov	r2, r1
 220 000a BB1C     		add	r3, r7, #2
 221 000c 1A80     		strh	r2, [r3]
 205:../Generated_Code/PwmLdd1.c ****   PwmLdd1_TDeviceData *DeviceDataPrv = (PwmLdd1_TDeviceData *)DeviceDataPtr;
 222              		.loc 1 205 0
 223 000e 7B68     		ldr	r3, [r7, #4]
 224 0010 FB60     		str	r3, [r7, #12]
 206:../Generated_Code/PwmLdd1.c ****   LDD_TimerUnit_Tfloat rtval;          /* Result of multiplication */
 207:../Generated_Code/PwmLdd1.c **** 
 208:../Generated_Code/PwmLdd1.c ****   /* Time test - this test can be disabled by setting the "Ignore range checking"
 209:../Generated_Code/PwmLdd1.c ****      property to the "yes" value in the "Configuration inspector" */
 210:../Generated_Code/PwmLdd1.c ****   if (Time > 0x07D0U) {                /* Is the given value out of range? */
 225              		.loc 1 210 0
 226 0012 BB1C     		add	r3, r7, #2
 227 0014 1A88     		ldrh	r2, [r3]
 228 0016 FA23     		mov	r3, #250
 229 0018 DB00     		lsl	r3, r3, #3
 230 001a 9A42     		cmp	r2, r3
 231 001c 01D9     		bls	.L11
 211:../Generated_Code/PwmLdd1.c ****     return ERR_RANGE;                  /* If yes then error */
 232              		.loc 1 211 0
 233 001e 0223     		mov	r3, #2
 234 0020 29E0     		b	.L12
 235              	.L11:
 212:../Generated_Code/PwmLdd1.c ****   }
 213:../Generated_Code/PwmLdd1.c ****   rtval = Time * 32.768F;              /* Multiply given value and actual clock configuration coeff
 236              		.loc 1 213 0
 237 0022 BB1C     		add	r3, r7, #2
 238 0024 1B88     		ldrh	r3, [r3]
 239 0026 181C     		mov	r0, r3
 240 0028 FFF7FEFF 		bl	__aeabi_i2f
 241 002c 031C     		add	r3, r0, #0
 242 002e 181C     		add	r0, r3, #0
 243 0030 1349     		ldr	r1, .L16
 244 0032 FFF7FEFF 		bl	__aeabi_fmul
 245 0036 031C     		add	r3, r0, #0
 246 0038 BB60     		str	r3, [r7, #8]
 214:../Generated_Code/PwmLdd1.c ****   if (rtval > 0xFFFFUL) {              /* Is the result greater than 65535 ? */
 247              		.loc 1 214 0
 248 003a 0123     		mov	r3, #1
 249 003c 1C1C     		add	r4, r3, #0
 250 003e B868     		ldr	r0, [r7, #8]
 251 0040 1049     		ldr	r1, .L16+4
 252 0042 FFF7FEFF 		bl	__aeabi_fcmpgt
 253 0046 031C     		mov	r3, r0
 254 0048 01D1     		bne	.L13
 255 004a 0023     		mov	r3, #0
 256 004c 1C1C     		add	r4, r3, #0
 257              	.L13:
 258 004e E3B2     		uxtb	r3, r4
 259 0050 002B     		cmp	r3, #0
 260 0052 04D0     		beq	.L14
 215:../Generated_Code/PwmLdd1.c ****     DeviceDataPrv->RatioStore = 0xFFFFU; /* If yes then use maximal possible value */
 261              		.loc 1 215 0
 262 0054 FB68     		ldr	r3, [r7, #12]
 263 0056 0122     		mov	r2, #1
 264 0058 5242     		neg	r2, r2
 265 005a DA80     		strh	r2, [r3, #6]
 266 005c 06E0     		b	.L15
 267              	.L14:
 216:../Generated_Code/PwmLdd1.c ****   }
 217:../Generated_Code/PwmLdd1.c ****   else {
 218:../Generated_Code/PwmLdd1.c ****     DeviceDataPrv->RatioStore = (uint16_t)rtval;
 268              		.loc 1 218 0
 269 005e B868     		ldr	r0, [r7, #8]
 270 0060 FFF7FEFF 		bl	__aeabi_f2uiz
 271 0064 031C     		mov	r3, r0
 272 0066 9AB2     		uxth	r2, r3
 273 0068 FB68     		ldr	r3, [r7, #12]
 274 006a DA80     		strh	r2, [r3, #6]
 275              	.L15:
 219:../Generated_Code/PwmLdd1.c ****   }
 220:../Generated_Code/PwmLdd1.c ****   SetRatio(DeviceDataPrv);             /* Calculate and set up new appropriate values of the duty r
 276              		.loc 1 220 0
 277 006c FB68     		ldr	r3, [r7, #12]
 278 006e 181C     		mov	r0, r3
 279 0070 FFF7FEFF 		bl	SetRatio
 221:../Generated_Code/PwmLdd1.c ****   return ERR_OK;                       /* OK */
 280              		.loc 1 221 0
 281 0074 0023     		mov	r3, #0
 282              	.L12:
 222:../Generated_Code/PwmLdd1.c **** }
 283              		.loc 1 222 0
 284 0076 181C     		mov	r0, r3
 285 0078 BD46     		mov	sp, r7
 286 007a 05B0     		add	sp, sp, #20
 287              		@ sp needed for prologue
 288 007c 90BD     		pop	{r4, r7, pc}
 289              	.L17:
 290 007e C046     		.align	2
 291              	.L16:
 292 0080 6F120342 		.word	1107497583
 293 0084 00FF7F47 		.word	1199570688
 294              		.cfi_endproc
 295              	.LFE3:
 297              		.section	.text.PwmLdd1_SetDutyMS,"ax",%progbits
 298              		.align	2
 299              		.global	PwmLdd1_SetDutyMS
 300              		.code	16
 301              		.thumb_func
 303              	PwmLdd1_SetDutyMS:
 304              	.LFB4:
 223:../Generated_Code/PwmLdd1.c **** 
 224:../Generated_Code/PwmLdd1.c **** /*
 225:../Generated_Code/PwmLdd1.c **** ** ===================================================================
 226:../Generated_Code/PwmLdd1.c **** **     Method      :  PwmLdd1_SetDutyMS (component PWM_LDD)
 227:../Generated_Code/PwmLdd1.c **** **
 228:../Generated_Code/PwmLdd1.c **** **     Description :
 229:../Generated_Code/PwmLdd1.c **** **         This method sets the new duty value of the output signal.
 230:../Generated_Code/PwmLdd1.c **** **         The duty is expressed in milliseconds as a 16-bit unsigned
 231:../Generated_Code/PwmLdd1.c **** **         integer number. The method is available only if it is not
 232:../Generated_Code/PwmLdd1.c **** **         selected list of predefined values in <Starting pulse width>
 233:../Generated_Code/PwmLdd1.c **** **         property.
 234:../Generated_Code/PwmLdd1.c **** **     Parameters  :
 235:../Generated_Code/PwmLdd1.c **** **         NAME            - DESCRIPTION
 236:../Generated_Code/PwmLdd1.c **** **       * DeviceDataPtr   - Device data structure
 237:../Generated_Code/PwmLdd1.c **** **                           pointer returned by <Init> method.
 238:../Generated_Code/PwmLdd1.c **** **         Time            - Duty to set [in milliseconds]
 239:../Generated_Code/PwmLdd1.c **** **     Returns     :
 240:../Generated_Code/PwmLdd1.c **** **         ---             - Error code, possible codes:
 241:../Generated_Code/PwmLdd1.c **** **                           ERR_OK - OK
 242:../Generated_Code/PwmLdd1.c **** **                           ERR_SPEED - The component does not work in
 243:../Generated_Code/PwmLdd1.c **** **                           the active clock configuration
 244:../Generated_Code/PwmLdd1.c **** **                           ERR_MATH - Overflow during evaluation
 245:../Generated_Code/PwmLdd1.c **** **                           ERR_RANGE - Parameter out of range
 246:../Generated_Code/PwmLdd1.c **** ** ===================================================================
 247:../Generated_Code/PwmLdd1.c **** */
 248:../Generated_Code/PwmLdd1.c **** LDD_TError PwmLdd1_SetDutyMS(LDD_TDeviceData *DeviceDataPtr, uint16_t Time)
 249:../Generated_Code/PwmLdd1.c **** {
 305              		.loc 1 249 0
 306              		.cfi_startproc
 307 0000 90B5     		push	{r4, r7, lr}
 308              	.LCFI12:
 309              		.cfi_def_cfa_offset 12
 310              		.cfi_offset 4, -12
 311              		.cfi_offset 7, -8
 312              		.cfi_offset 14, -4
 313 0002 85B0     		sub	sp, sp, #20
 314              	.LCFI13:
 315              		.cfi_def_cfa_offset 32
 316 0004 00AF     		add	r7, sp, #0
 317              	.LCFI14:
 318              		.cfi_def_cfa_register 7
 319 0006 7860     		str	r0, [r7, #4]
 320 0008 0A1C     		mov	r2, r1
 321 000a BB1C     		add	r3, r7, #2
 322 000c 1A80     		strh	r2, [r3]
 250:../Generated_Code/PwmLdd1.c ****   PwmLdd1_TDeviceData *DeviceDataPrv = (PwmLdd1_TDeviceData *)DeviceDataPtr;
 323              		.loc 1 250 0
 324 000e 7B68     		ldr	r3, [r7, #4]
 325 0010 FB60     		str	r3, [r7, #12]
 251:../Generated_Code/PwmLdd1.c ****   LDD_TimerUnit_Tfloat rtval;          /* Result of multiplication */
 252:../Generated_Code/PwmLdd1.c **** 
 253:../Generated_Code/PwmLdd1.c ****   /* Time test - this test can be disabled by setting the "Ignore range checking"
 254:../Generated_Code/PwmLdd1.c ****      property to the "yes" value in the "Configuration inspector" */
 255:../Generated_Code/PwmLdd1.c ****   if (Time > 0x02U) {                  /* Is the given value out of range? */
 326              		.loc 1 255 0
 327 0012 BB1C     		add	r3, r7, #2
 328 0014 1B88     		ldrh	r3, [r3]
 329 0016 022B     		cmp	r3, #2
 330 0018 01D9     		bls	.L19
 256:../Generated_Code/PwmLdd1.c ****     return ERR_RANGE;                  /* If yes then error */
 331              		.loc 1 256 0
 332 001a 0223     		mov	r3, #2
 333 001c 29E0     		b	.L20
 334              	.L19:
 257:../Generated_Code/PwmLdd1.c ****   }
 258:../Generated_Code/PwmLdd1.c ****   rtval = Time * 32768.0F;             /* Multiply given value and actual clock configuration coeff
 335              		.loc 1 258 0
 336 001e BB1C     		add	r3, r7, #2
 337 0020 1B88     		ldrh	r3, [r3]
 338 0022 181C     		mov	r0, r3
 339 0024 FFF7FEFF 		bl	__aeabi_i2f
 340 0028 031C     		add	r3, r0, #0
 341 002a 181C     		add	r0, r3, #0
 342 002c 1349     		ldr	r1, .L24
 343 002e FFF7FEFF 		bl	__aeabi_fmul
 344 0032 031C     		add	r3, r0, #0
 345 0034 BB60     		str	r3, [r7, #8]
 259:../Generated_Code/PwmLdd1.c ****   if (rtval > 0xFFFFUL) {              /* Is the result greater than 65535 ? */
 346              		.loc 1 259 0
 347 0036 0123     		mov	r3, #1
 348 0038 1C1C     		add	r4, r3, #0
 349 003a B868     		ldr	r0, [r7, #8]
 350 003c 1049     		ldr	r1, .L24+4
 351 003e FFF7FEFF 		bl	__aeabi_fcmpgt
 352 0042 031C     		mov	r3, r0
 353 0044 01D1     		bne	.L21
 354 0046 0023     		mov	r3, #0
 355 0048 1C1C     		add	r4, r3, #0
 356              	.L21:
 357 004a E3B2     		uxtb	r3, r4
 358 004c 002B     		cmp	r3, #0
 359 004e 04D0     		beq	.L22
 260:../Generated_Code/PwmLdd1.c ****     DeviceDataPrv->RatioStore = 0xFFFFU; /* If yes then use maximal possible value */
 360              		.loc 1 260 0
 361 0050 FB68     		ldr	r3, [r7, #12]
 362 0052 0122     		mov	r2, #1
 363 0054 5242     		neg	r2, r2
 364 0056 DA80     		strh	r2, [r3, #6]
 365 0058 06E0     		b	.L23
 366              	.L22:
 261:../Generated_Code/PwmLdd1.c ****   }
 262:../Generated_Code/PwmLdd1.c ****   else {
 263:../Generated_Code/PwmLdd1.c ****     DeviceDataPrv->RatioStore = (uint16_t)rtval;
 367              		.loc 1 263 0
 368 005a B868     		ldr	r0, [r7, #8]
 369 005c FFF7FEFF 		bl	__aeabi_f2uiz
 370 0060 031C     		mov	r3, r0
 371 0062 9AB2     		uxth	r2, r3
 372 0064 FB68     		ldr	r3, [r7, #12]
 373 0066 DA80     		strh	r2, [r3, #6]
 374              	.L23:
 264:../Generated_Code/PwmLdd1.c ****   }
 265:../Generated_Code/PwmLdd1.c ****   SetRatio(DeviceDataPrv);             /* Calculate and set up new appropriate values of the duty r
 375              		.loc 1 265 0
 376 0068 FB68     		ldr	r3, [r7, #12]
 377 006a 181C     		mov	r0, r3
 378 006c FFF7FEFF 		bl	SetRatio
 266:../Generated_Code/PwmLdd1.c ****   return ERR_OK;                       /* OK */
 379              		.loc 1 266 0
 380 0070 0023     		mov	r3, #0
 381              	.L20:
 267:../Generated_Code/PwmLdd1.c **** }
 382              		.loc 1 267 0
 383 0072 181C     		mov	r0, r3
 384 0074 BD46     		mov	sp, r7
 385 0076 05B0     		add	sp, sp, #20
 386              		@ sp needed for prologue
 387 0078 90BD     		pop	{r4, r7, pc}
 388              	.L25:
 389 007a C046     		.align	2
 390              	.L24:
 391 007c 00000047 		.word	1191182336
 392 0080 00FF7F47 		.word	1199570688
 393              		.cfi_endproc
 394              	.LFE4:
 396              		.section	.text.SetRatio,"ax",%progbits
 397              		.align	2
 398              		.code	16
 399              		.thumb_func
 401              	SetRatio:
 402              	.LFB5:
 268:../Generated_Code/PwmLdd1.c **** 
 269:../Generated_Code/PwmLdd1.c **** /*
 270:../Generated_Code/PwmLdd1.c **** ** ===================================================================
 271:../Generated_Code/PwmLdd1.c **** **     Method      :  SetRatio (component PWM_LDD)
 272:../Generated_Code/PwmLdd1.c **** **
 273:../Generated_Code/PwmLdd1.c **** **     Description :
 274:../Generated_Code/PwmLdd1.c **** **         This method calculates new value of duty compare register from 
 275:../Generated_Code/PwmLdd1.c **** **         variable RatioStore.
 276:../Generated_Code/PwmLdd1.c **** **         This method is internal. It is used by Processor Expert only.
 277:../Generated_Code/PwmLdd1.c **** ** ===================================================================
 278:../Generated_Code/PwmLdd1.c **** */
 279:../Generated_Code/PwmLdd1.c **** static void SetRatio(LDD_TDeviceData *DeviceDataPtr)
 280:../Generated_Code/PwmLdd1.c **** {
 403              		.loc 1 280 0
 404              		.cfi_startproc
 405 0000 80B5     		push	{r7, lr}
 406              	.LCFI15:
 407              		.cfi_def_cfa_offset 8
 408              		.cfi_offset 7, -8
 409              		.cfi_offset 14, -4
 410 0002 86B0     		sub	sp, sp, #24
 411              	.LCFI16:
 412              		.cfi_def_cfa_offset 32
 413 0004 00AF     		add	r7, sp, #0
 414              	.LCFI17:
 415              		.cfi_def_cfa_register 7
 416 0006 7860     		str	r0, [r7, #4]
 281:../Generated_Code/PwmLdd1.c ****   PwmLdd1_TDeviceData *DeviceDataPrv = (PwmLdd1_TDeviceData*)DeviceDataPtr;
 417              		.loc 1 281 0
 418 0008 7B68     		ldr	r3, [r7, #4]
 419 000a 3B61     		str	r3, [r7, #16]
 282:../Generated_Code/PwmLdd1.c ****   uint16_t Period;
 283:../Generated_Code/PwmLdd1.c ****   uint16_t Duty;
 284:../Generated_Code/PwmLdd1.c **** 
 285:../Generated_Code/PwmLdd1.c ****   (void)TU1_GetPeriodTicks(DeviceDataPrv->LinkedDeviceDataPtr, &Period);
 420              		.loc 1 285 0
 421 000c 3B69     		ldr	r3, [r7, #16]
 422 000e 1A68     		ldr	r2, [r3]
 423 0010 3B1C     		mov	r3, r7
 424 0012 0E33     		add	r3, r3, #14
 425 0014 101C     		mov	r0, r2
 426 0016 191C     		mov	r1, r3
 427 0018 FFF7FEFF 		bl	TU1_GetPeriodTicks
 286:../Generated_Code/PwmLdd1.c ****   if (Period == 0U) {
 428              		.loc 1 286 0
 429 001c 3B1C     		mov	r3, r7
 430 001e 0E33     		add	r3, r3, #14
 431 0020 1B88     		ldrh	r3, [r3]
 432 0022 002B     		cmp	r3, #0
 433 0024 05D1     		bne	.L27
 287:../Generated_Code/PwmLdd1.c ****     Duty = DeviceDataPrv->RatioStore;
 434              		.loc 1 287 0
 435 0026 3B1C     		mov	r3, r7
 436 0028 1633     		add	r3, r3, #22
 437 002a 3A69     		ldr	r2, [r7, #16]
 438 002c D288     		ldrh	r2, [r2, #6]
 439 002e 1A80     		strh	r2, [r3]
 440 0030 11E0     		b	.L28
 441              	.L27:
 288:../Generated_Code/PwmLdd1.c ****   }
 289:../Generated_Code/PwmLdd1.c ****   else {
 290:../Generated_Code/PwmLdd1.c ****     Duty = (uint16_t)((((uint32_t)Period * DeviceDataPrv->RatioStore) + ((Period - 1U) & 0x8000)) >
 442              		.loc 1 290 0
 443 0032 3B1C     		mov	r3, r7
 444 0034 0E33     		add	r3, r3, #14
 445 0036 1B88     		ldrh	r3, [r3]
 446 0038 3A69     		ldr	r2, [r7, #16]
 447 003a D288     		ldrh	r2, [r2, #6]
 448 003c 5A43     		mul	r2, r3
 449 003e 3B1C     		mov	r3, r7
 450 0040 0E33     		add	r3, r3, #14
 451 0042 1B88     		ldrh	r3, [r3]
 452 0044 591E     		sub	r1, r3, #1
 453 0046 8023     		mov	r3, #128
 454 0048 1B02     		lsl	r3, r3, #8
 455 004a 0B40     		and	r3, r1
 456 004c D318     		add	r3, r2, r3
 457 004e 1A0C     		lsr	r2, r3, #16
 458 0050 3B1C     		mov	r3, r7
 459 0052 1633     		add	r3, r3, #22
 460 0054 1A80     		strh	r2, [r3]
 461              	.L28:
 291:../Generated_Code/PwmLdd1.c ****   }
 292:../Generated_Code/PwmLdd1.c ****   (void)TU1_SetOffsetTicks(DeviceDataPrv->LinkedDeviceDataPtr, CHANNEL, Duty);
 462              		.loc 1 292 0
 463 0056 3B69     		ldr	r3, [r7, #16]
 464 0058 1A68     		ldr	r2, [r3]
 465 005a 3B1C     		mov	r3, r7
 466 005c 1633     		add	r3, r3, #22
 467 005e 1B88     		ldrh	r3, [r3]
 468 0060 101C     		mov	r0, r2
 469 0062 0021     		mov	r1, #0
 470 0064 1A1C     		mov	r2, r3
 471 0066 FFF7FEFF 		bl	TU1_SetOffsetTicks
 293:../Generated_Code/PwmLdd1.c **** }
 472              		.loc 1 293 0
 473 006a BD46     		mov	sp, r7
 474 006c 06B0     		add	sp, sp, #24
 475              		@ sp needed for prologue
 476 006e 80BD     		pop	{r7, pc}
 477              		.cfi_endproc
 478              	.LFE5:
 480              		.text
 481              	.Letext0:
 482              		.file 2 "C:/Freescale/CW MCU v10.3/MCU/ARM_GCC_Support/ewl/EWL_C/include/cstdint"
 483              		.file 3 "../Generated_Code/PE_Types.h"
 484              		.file 4 "../Generated_Code/PE_LDD.h"
DEFINED SYMBOLS
                            *ABS*:00000000 PwmLdd1.c
C:\DOCUME~1\chenty\LOCALS~1\Temp\ccCLOe9T.s:18     .bss.DeviceDataPrv__DEFAULT_RTOS_ALLOC:00000000 $d
C:\DOCUME~1\chenty\LOCALS~1\Temp\ccCLOe9T.s:21     .bss.DeviceDataPrv__DEFAULT_RTOS_ALLOC:00000000 DeviceDataPrv__DEFAULT_RTOS_ALLOC
C:\DOCUME~1\chenty\LOCALS~1\Temp\ccCLOe9T.s:24     .text.PwmLdd1_Init:00000000 $t
C:\DOCUME~1\chenty\LOCALS~1\Temp\ccCLOe9T.s:29     .text.PwmLdd1_Init:00000000 PwmLdd1_Init
C:\DOCUME~1\chenty\LOCALS~1\Temp\ccCLOe9T.s:92     .text.PwmLdd1_Init:00000048 $d
C:\DOCUME~1\chenty\LOCALS~1\Temp\ccCLOe9T.s:99     .text.PwmLdd1_Deinit:00000000 $t
C:\DOCUME~1\chenty\LOCALS~1\Temp\ccCLOe9T.s:104    .text.PwmLdd1_Deinit:00000000 PwmLdd1_Deinit
C:\DOCUME~1\chenty\LOCALS~1\Temp\ccCLOe9T.s:140    .text.PwmLdd1_Deinit:00000024 $d
C:\DOCUME~1\chenty\LOCALS~1\Temp\ccCLOe9T.s:145    .text.PwmLdd1_SetRatio16:00000000 $t
C:\DOCUME~1\chenty\LOCALS~1\Temp\ccCLOe9T.s:150    .text.PwmLdd1_SetRatio16:00000000 PwmLdd1_SetRatio16
C:\DOCUME~1\chenty\LOCALS~1\Temp\ccCLOe9T.s:401    .text.SetRatio:00000000 SetRatio
C:\DOCUME~1\chenty\LOCALS~1\Temp\ccCLOe9T.s:197    .text.PwmLdd1_SetDutyUS:00000000 $t
C:\DOCUME~1\chenty\LOCALS~1\Temp\ccCLOe9T.s:202    .text.PwmLdd1_SetDutyUS:00000000 PwmLdd1_SetDutyUS
C:\DOCUME~1\chenty\LOCALS~1\Temp\ccCLOe9T.s:292    .text.PwmLdd1_SetDutyUS:00000080 $d
C:\DOCUME~1\chenty\LOCALS~1\Temp\ccCLOe9T.s:298    .text.PwmLdd1_SetDutyMS:00000000 $t
C:\DOCUME~1\chenty\LOCALS~1\Temp\ccCLOe9T.s:303    .text.PwmLdd1_SetDutyMS:00000000 PwmLdd1_SetDutyMS
C:\DOCUME~1\chenty\LOCALS~1\Temp\ccCLOe9T.s:391    .text.PwmLdd1_SetDutyMS:0000007c $d
C:\DOCUME~1\chenty\LOCALS~1\Temp\ccCLOe9T.s:397    .text.SetRatio:00000000 $t
                     .debug_frame:00000010 $d

UNDEFINED SYMBOLS
TU1_Init
PE_LDD_DeviceDataList
TU1_Deinit
__aeabi_i2f
__aeabi_fmul
__aeabi_fcmpgt
__aeabi_f2uiz
TU1_GetPeriodTicks
TU1_SetOffsetTicks
