   1              		.cpu cortex-m0
   2              		.fpu softvfp
   3              		.eabi_attribute 20, 1
   4              		.eabi_attribute 21, 1
   5              		.eabi_attribute 23, 3
   6              		.eabi_attribute 24, 1
   7              		.eabi_attribute 25, 1
   8              		.eabi_attribute 26, 1
   9              		.eabi_attribute 30, 6
  10              		.eabi_attribute 34, 0
  11              		.eabi_attribute 18, 4
  12              		.code	16
  13              		.file	"Servo_Video1.c"
  14              		.text
  15              	.Ltext0:
  16              		.cfi_sections	.debug_frame
  17              		.section	.text.PwmLdd5_OnEnd,"ax",%progbits
  18              		.align	2
  19              		.global	PwmLdd5_OnEnd
  20              		.code	16
  21              		.thumb_func
  23              	PwmLdd5_OnEnd:
  24              	.LFB0:
  25              		.file 1 "../Generated_Code/Servo_Video1.c"
   1:../Generated_Code/Servo_Video1.c **** /** ###################################################################
   2:../Generated_Code/Servo_Video1.c **** **     THIS COMPONENT MODULE IS GENERATED BY THE TOOL. DO NOT MODIFY IT.
   3:../Generated_Code/Servo_Video1.c **** **     Filename    : Servo_Video1.c
   4:../Generated_Code/Servo_Video1.c **** **     Project     : ProcessorExpert
   5:../Generated_Code/Servo_Video1.c **** **     Processor   : MKL25Z128VLK4
   6:../Generated_Code/Servo_Video1.c **** **     Component   : PWM
   7:../Generated_Code/Servo_Video1.c **** **     Version     : Component 02.238, Driver 01.00, CPU db: 3.00.000
   8:../Generated_Code/Servo_Video1.c **** **     Compiler    : GNU C Compiler
   9:../Generated_Code/Servo_Video1.c **** **     Date/Time   : 2013-05-25, 21:24, # CodeGen: 82
  10:../Generated_Code/Servo_Video1.c **** **     Abstract    :
  11:../Generated_Code/Servo_Video1.c **** **         This component implements a pulse-width modulation generator
  12:../Generated_Code/Servo_Video1.c **** **         that generates signal with variable duty and fixed cycle. 
  13:../Generated_Code/Servo_Video1.c **** **     Settings    :
  14:../Generated_Code/Servo_Video1.c **** **         Used output pin             : 
  15:../Generated_Code/Servo_Video1.c **** **             ----------------------------------------------------
  16:../Generated_Code/Servo_Video1.c **** **                Number (on package)  |    Name
  17:../Generated_Code/Servo_Video1.c **** **             ----------------------------------------------------
  18:../Generated_Code/Servo_Video1.c **** **                       43            |  ADC0_SE8/TSI0_CH0/PTB0/LLWU_P5/I2C0_SCL/TPM1_CH0
  19:../Generated_Code/Servo_Video1.c **** **             ----------------------------------------------------
  20:../Generated_Code/Servo_Video1.c **** **
  21:../Generated_Code/Servo_Video1.c **** **         Timer name                  : TPM1_CNT [16-bit]
  22:../Generated_Code/Servo_Video1.c **** **         Counter                     : TPM1_CNT  [0x40039004]
  23:../Generated_Code/Servo_Video1.c **** **         Mode register               : TPM1_SC   [0x40039000]
  24:../Generated_Code/Servo_Video1.c **** **         Run register                : TPM1_SC   [0x40039000]
  25:../Generated_Code/Servo_Video1.c **** **         Prescaler                   : TPM1_SC   [0x40039000]
  26:../Generated_Code/Servo_Video1.c **** **         Compare register            : TPM1_C0V  [0x40039010]
  27:../Generated_Code/Servo_Video1.c **** **         Flip-flop register          : TPM1_C0SC [0x4003900C]
  28:../Generated_Code/Servo_Video1.c **** **
  29:../Generated_Code/Servo_Video1.c **** **         Interrupt name              : INT_TPM1
  30:../Generated_Code/Servo_Video1.c **** **         Interrupt enable reg.       : TPM1_C1SC [0x40039014]
  31:../Generated_Code/Servo_Video1.c **** **         Priority                    : 2
  32:../Generated_Code/Servo_Video1.c **** **         User handling procedure     : Servo_Video1_OnEnd
  33:../Generated_Code/Servo_Video1.c **** **         This event is called when the 1 of cycles is generated
  34:../Generated_Code/Servo_Video1.c **** **
  35:../Generated_Code/Servo_Video1.c **** **         Port name                   : PTB
  36:../Generated_Code/Servo_Video1.c **** **         Bit number (in port)        : 0
  37:../Generated_Code/Servo_Video1.c **** **         Bit mask of the port        : 0x0001
  38:../Generated_Code/Servo_Video1.c **** **         Port data register          : GPIOB_PDOR [0x400FF040]
  39:../Generated_Code/Servo_Video1.c **** **         Port control register       : GPIOB_PDDR [0x400FF054]
  40:../Generated_Code/Servo_Video1.c **** **
  41:../Generated_Code/Servo_Video1.c **** **         Initialization:
  42:../Generated_Code/Servo_Video1.c **** **              Output level           : low
  43:../Generated_Code/Servo_Video1.c **** **              Timer                  : Enabled
  44:../Generated_Code/Servo_Video1.c **** **              Event                  : Enabled
  45:../Generated_Code/Servo_Video1.c **** **         High speed mode
  46:../Generated_Code/Servo_Video1.c **** **             Prescaler               : divide-by-[driven by slave component]
  47:../Generated_Code/Servo_Video1.c **** **             Clock                   : [driven by slave component] Hz
  48:../Generated_Code/Servo_Video1.c **** **           Initial value of            period     pulse width
  49:../Generated_Code/Servo_Video1.c **** **             Xtal ticks              : ---        ---
  50:../Generated_Code/Servo_Video1.c **** **             microseconds            : ---        ---
  51:../Generated_Code/Servo_Video1.c **** **             milliseconds            : 12         1
  52:../Generated_Code/Servo_Video1.c **** **             seconds                 : ---        ---
  53:../Generated_Code/Servo_Video1.c **** **             seconds (real)          : 12         1
  54:../Generated_Code/Servo_Video1.c **** **
  55:../Generated_Code/Servo_Video1.c **** **     Contents    :
  56:../Generated_Code/Servo_Video1.c **** **         SetRatio16 - byte Servo_Video1_SetRatio16(word Ratio);
  57:../Generated_Code/Servo_Video1.c **** **         SetDutyUS  - byte Servo_Video1_SetDutyUS(word Time);
  58:../Generated_Code/Servo_Video1.c **** **         SetDutyMS  - byte Servo_Video1_SetDutyMS(word Time);
  59:../Generated_Code/Servo_Video1.c **** **
  60:../Generated_Code/Servo_Video1.c **** **     Copyright : 1997 - 2012 Freescale, Inc. All Rights Reserved.
  61:../Generated_Code/Servo_Video1.c **** **     
  62:../Generated_Code/Servo_Video1.c **** **     http      : www.freescale.com
  63:../Generated_Code/Servo_Video1.c **** **     mail      : support@freescale.com
  64:../Generated_Code/Servo_Video1.c **** ** ###################################################################*/
  65:../Generated_Code/Servo_Video1.c **** 
  66:../Generated_Code/Servo_Video1.c **** /* MODULE Servo_Video1. */
  67:../Generated_Code/Servo_Video1.c **** 
  68:../Generated_Code/Servo_Video1.c **** #include "Events.h"
  69:../Generated_Code/Servo_Video1.c **** #include "Servo_Video1.h"
  70:../Generated_Code/Servo_Video1.c **** 
  71:../Generated_Code/Servo_Video1.c **** /*
  72:../Generated_Code/Servo_Video1.c **** ** ===================================================================
  73:../Generated_Code/Servo_Video1.c **** **     Method      :  Servo_Video1_OnEnd (component PWM)
  74:../Generated_Code/Servo_Video1.c **** **
  75:../Generated_Code/Servo_Video1.c **** **     Description :
  76:../Generated_Code/Servo_Video1.c **** **         This method is internal. It is used by Processor Expert only.
  77:../Generated_Code/Servo_Video1.c **** ** ===================================================================
  78:../Generated_Code/Servo_Video1.c **** */
  79:../Generated_Code/Servo_Video1.c **** void PwmLdd5_OnEnd(LDD_TUserData *UserDataPtr)
  80:../Generated_Code/Servo_Video1.c **** {
  26              		.loc 1 80 0
  27              		.cfi_startproc
  28 0000 80B5     		push	{r7, lr}
  29              	.LCFI0:
  30              		.cfi_def_cfa_offset 8
  31              		.cfi_offset 7, -8
  32              		.cfi_offset 14, -4
  33 0002 82B0     		sub	sp, sp, #8
  34              	.LCFI1:
  35              		.cfi_def_cfa_offset 16
  36 0004 00AF     		add	r7, sp, #0
  37              	.LCFI2:
  38              		.cfi_def_cfa_register 7
  39 0006 7860     		str	r0, [r7, #4]
  81:../Generated_Code/Servo_Video1.c ****   (void)UserDataPtr;                   /* Parameter is not used, suppress unused argument warning *
  82:../Generated_Code/Servo_Video1.c ****   Servo_Video1_OnEnd();                /* Invoke OnEnd event */
  40              		.loc 1 82 0
  41 0008 FFF7FEFF 		bl	Servo_Video1_OnEnd
  83:../Generated_Code/Servo_Video1.c **** }
  42              		.loc 1 83 0
  43 000c BD46     		mov	sp, r7
  44 000e 02B0     		add	sp, sp, #8
  45              		@ sp needed for prologue
  46 0010 80BD     		pop	{r7, pc}
  47              		.cfi_endproc
  48              	.LFE0:
  50 0012 C046     		.text
  51              	.Letext0:
  52              		.file 2 "C:/workspace/USBDM/Generated_Code/PE_LDD.h"